Component: ARM Compiler 5.06 update 6 (build 750) Tool: armlink [4d35ed]

==============================================================================

Section Cross References

    my_asm.o(.text) refers to nrk.o(i._nrk_timer_tick) for _nrk_timer_tick
    my_asm.o(.text) refers to nrk.o(.data) for nrk_high_ready_TCB
    hal_wait.o(.ARM.exidx) refers to hal_wait.o(i._Z7halWaitt) for i._Z7halWaitt
    nrk_eeprom.o(.ARM.exidx) refers to nrk_eeprom.o(i._Z20nrk_eeprom_read_bytet) for i._Z20nrk_eeprom_read_bytet
    nrk_eeprom.o(.ARM.exidx) refers to nrk_eeprom.o(i._Z21nrk_eeprom_write_byteth) for i._Z21nrk_eeprom_write_byteth
    nrk_eeprom.o(.ARM.exidx) refers to nrk_eeprom.o(i._Z23read_eeprom_mac_addressPj) for i._Z23read_eeprom_mac_addressPj
    nrk_eeprom.o(.ARM.exidx) refers to nrk_eeprom.o(i._Z19read_eeprom_channelPh) for i._Z19read_eeprom_channelPh
    nrk_eeprom.o(.ARM.exidx) refers to nrk_eeprom.o(i._Z27write_eeprom_load_img_pagesPh) for i._Z27write_eeprom_load_img_pagesPh
    nrk_eeprom.o(.ARM.exidx) refers to nrk_eeprom.o(i._Z26read_eeprom_load_img_pagesPh) for i._Z26read_eeprom_load_img_pagesPh
    nrk_eeprom.o(.ARM.exidx) refers to nrk_eeprom.o(i._Z19read_eeprom_aes_keyPh) for i._Z19read_eeprom_aes_keyPh
    nrk_eeprom.o(.ARM.exidx) refers to nrk_eeprom.o(i._Z20write_eeprom_aes_keyPh) for i._Z20write_eeprom_aes_keyPh
    nrk_eeprom.o(.ARM.exidx) refers to nrk_eeprom.o(i._Z34read_eeprom_current_image_checksumPh) for i._Z34read_eeprom_current_image_checksumPh
    nrk_eeprom.o(.ARM.exidx) refers to nrk_eeprom.o(i._Z35write_eeprom_current_image_checksumPh) for i._Z35write_eeprom_current_image_checksumPh
    ulib.o(i._Z11GPIO_SetDirhjh) refers to ulib.o(i._Z15GPIO_GetPointerh) for GPIO_GetPointer(unsigned char)
    ulib.o(i._Z11GPIO_Togglehj) refers to ulib.o(i._Z15GPIO_GetPointerh) for GPIO_GetPointer(unsigned char)
    ulib.o(i._Z11nrk_led_clri) refers to ulib.o(i._Z12nrk_gpio_clrj) for nrk_gpio_clr(unsigned)
    ulib.o(i._Z11nrk_led_seti) refers to ulib.o(i._Z12nrk_gpio_setj) for nrk_gpio_set(unsigned)
    ulib.o(i._Z11setup_uart2t) refers to ulib.o(i._Z21UART_ConfigStructInitP13UART_CFG_Type) for UART_ConfigStructInit(UART_CFG_Type*)
    ulib.o(i._Z11setup_uart2t) refers to ulib.o(i._Z9UART_InitP16LPC_UART_TypeDefP13UART_CFG_Type) for UART_Init(LPC_UART_TypeDef*, UART_CFG_Type*)
    ulib.o(i._Z11setup_uart3j) refers to ulib.o(i._Z21UART_ConfigStructInitP13UART_CFG_Type) for UART_ConfigStructInit(UART_CFG_Type*)
    ulib.o(i._Z11setup_uart3j) refers to ulib.o(i._Z9UART_InitP16LPC_UART_TypeDefP13UART_CFG_Type) for UART_Init(LPC_UART_TypeDef*, UART_CFG_Type*)
    ulib.o(i._Z12nrk_gpio_clrj) refers to ulib.o(i._Z15GPIO_ClearValuehj) for GPIO_ClearValue(unsigned char, unsigned)
    ulib.o(i._Z12nrk_gpio_geth) refers to ulib.o(i._Z14GPIO_ReadValueh) for GPIO_ReadValue(unsigned char)
    ulib.o(i._Z12nrk_gpio_setj) refers to ulib.o(i._Z13GPIO_SetValuehj) for GPIO_SetValue(unsigned char, unsigned)
    ulib.o(i._Z12setupSPIPinsv) refers to ulib.o(i._Z16PINSEL_ConfigPinP15PINSEL_CFG_Type) for PINSEL_ConfigPin(PINSEL_CFG_Type*)
    ulib.o(i._Z13GPIO_SetValuehj) refers to ulib.o(i._Z15GPIO_GetPointerh) for GPIO_GetPointer(unsigned char)
    ulib.o(i._Z14CLKPWR_GetPCLKj) refers to ulib.o(i._Z17CLKPWR_GetPCLKSELj) for CLKPWR_GetPCLKSEL(unsigned)
    ulib.o(i._Z14CLKPWR_GetPCLKj) refers to system_LPC17xx.o(.data) for SystemCoreClock
    ulib.o(i._Z14GPIO_ReadValueh) refers to ulib.o(i._Z15GPIO_GetPointerh) for GPIO_GetPointer(unsigned char)
    ulib.o(i._Z14nrk_led_togglei) refers to ulib.o(i._Z15nrk_gpio_togglej) for nrk_gpio_toggle(unsigned)
    ulib.o(i._Z14nrk_setup_uartj) refers to ulib.o(i._Z11setup_uart3j) for setup_uart3(unsigned)
    ulib.o(i._Z14setup_uartPinsv) refers to ulib.o(i._Z16PINSEL_ConfigPinP15PINSEL_CFG_Type) for PINSEL_ConfigPin(PINSEL_CFG_Type*)
    ulib.o(i._Z15GPIO_ClearValuehj) refers to ulib.o(i._Z15GPIO_GetPointerh) for GPIO_GetPointer(unsigned char)
    ulib.o(i._Z15nrk_gpio_togglej) refers to ulib.o(i._Z11GPIO_Togglehj) for GPIO_Toggle(unsigned char, unsigned)
    ulib.o(i._Z15nrk_setup_portsv) refers to ulib.o(i._Z9PORT_INITv) for PORT_INIT()
    ulib.o(i._Z16PINSEL_ConfigPinP15PINSEL_CFG_Type) refers to ulib.o(i._Z11set_PinFunchhh) for set_PinFunc(unsigned char, unsigned char, unsigned char)
    ulib.o(i._Z16PINSEL_ConfigPinP15PINSEL_CFG_Type) refers to ulib.o(i._Z16set_ResistorModehhh) for set_ResistorMode(unsigned char, unsigned char, unsigned char)
    ulib.o(i._Z16PINSEL_ConfigPinP15PINSEL_CFG_Type) refers to ulib.o(i._Z17set_OpenDrainModehhh) for set_OpenDrainMode(unsigned char, unsigned char, unsigned char)
    ulib.o(i._Z17uart_set_divisorsP16LPC_UART_TypeDefj) refers to ulib.o(i._Z14CLKPWR_GetPCLKj) for CLKPWR_GetPCLK(unsigned)
    ulib.o(i._Z17uart_set_divisorsP16LPC_UART_TypeDefj) refers to lludivv7m.o(.text) for __aeabi_uldivmod
    ulib.o(i._Z18nrk_gpio_directionjh) refers to ulib.o(i._Z11GPIO_SetDirhjh) for GPIO_SetDir(unsigned char, unsigned, unsigned char)
    ulib.o(i._Z7initLEDv) refers to ulib.o(i._Z16PINSEL_ConfigPinP15PINSEL_CFG_Type) for PINSEL_ConfigPin(PINSEL_CFG_Type*)
    ulib.o(i._Z7initLEDv) refers to ulib.o(i._Z11GPIO_SetDirhjh) for GPIO_SetDir(unsigned char, unsigned, unsigned char)
    ulib.o(i._Z7initLEDv) refers to ulib.o(i._Z15GPIO_ClearValuehj) for GPIO_ClearValue(unsigned char, unsigned)
    ulib.o(i._Z9PORT_INITv) refers to ulib.o(i._Z7initLEDv) for initLED()
    ulib.o(i._Z9PORT_INITv) refers to ulib.o(i._Z9initDEBUGv) for initDEBUG()
    ulib.o(i._Z9PORT_INITv) refers to ulib.o(i._Z12setupSPIPinsv) for setupSPIPins()
    ulib.o(i._Z9PORT_INITv) refers to ulib.o(i._Z14setup_uartPinsv) for setup_uartPins()
    ulib.o(i._Z9UART_InitP16LPC_UART_TypeDefP13UART_CFG_Type) refers to ulib.o(i._Z17uart_set_divisorsP16LPC_UART_TypeDefj) for uart_set_divisors(LPC_UART_TypeDef*, unsigned)
    ulib.o(i._Z9initDEBUGv) refers to ulib.o(i._Z16PINSEL_ConfigPinP15PINSEL_CFG_Type) for PINSEL_ConfigPin(PINSEL_CFG_Type*)
    ulib.o(i._Z9initDEBUGv) refers to ulib.o(i._Z11GPIO_SetDirhjh) for GPIO_SetDir(unsigned char, unsigned, unsigned char)
    ulib.o(i._Z9initDEBUGv) refers to ulib.o(i._Z15GPIO_ClearValuehj) for GPIO_ClearValue(unsigned char, unsigned)
    ulib.o(.ARM.exidx) refers to ulib.o(i._Z22nrk_uart_rx_signal_getv) for i._Z22nrk_uart_rx_signal_getv
    ulib.o(.ARM.exidx) refers to ulib.o(i._Z19nrk_uart_data_readyh) for i._Z19nrk_uart_data_readyh
    ulib.o(.ARM.exidx) refers to ulib.o(i._Z5getc3v) for i._Z5getc3v
    ulib.o(.ARM.exidx) refers to ulib.o(i._Z11nrk_kprintfPKc) for i._Z11nrk_kprintfPKc
    ulib.o(.ARM.exidx) refers to ulib.o(i._Z17set_OpenDrainModehhh) for i._Z17set_OpenDrainModehhh
    ulib.o(.ARM.exidx) refers to ulib.o(i._Z16set_ResistorModehhh) for i._Z16set_ResistorModehhh
    ulib.o(.ARM.exidx) refers to ulib.o(i._Z11set_PinFunchhh) for i._Z11set_PinFunchhh
    ulib.o(.ARM.exidx) refers to ulib.o(i._Z16PINSEL_ConfigPinP15PINSEL_CFG_Type) for i._Z16PINSEL_ConfigPinP15PINSEL_CFG_Type
    ulib.o(.ARM.exidx) refers to ulib.o(i._Z14setup_uartPinsv) for i._Z14setup_uartPinsv
    ulib.o(.ARM.exidx) refers to ulib.o(i._Z12setupSPIPinsv) for i._Z12setupSPIPinsv
    ulib.o(.ARM.exidx) refers to ulib.o(i._Z15GPIO_GetPointerh) for i._Z15GPIO_GetPointerh
    ulib.o(.ARM.exidx) refers to ulib.o(i._Z15GPIO_ClearValuehj) for i._Z15GPIO_ClearValuehj
    ulib.o(.ARM.exidx) refers to ulib.o(i._Z11GPIO_SetDirhjh) for i._Z11GPIO_SetDirhjh
    ulib.o(.ARM.exidx) refers to ulib.o(i._Z9initDEBUGv) for i._Z9initDEBUGv
    ulib.o(.ARM.exidx) refers to ulib.o(i._Z7initLEDv) for i._Z7initLEDv
    ulib.o(.ARM.exidx) refers to ulib.o(i._Z9PORT_INITv) for i._Z9PORT_INITv
    ulib.o(.ARM.exidx) refers to ulib.o(i._Z15nrk_setup_portsv) for i._Z15nrk_setup_portsv
    ulib.o(.ARM.exidx) refers to ulib.o(i._Z13GPIO_SetValuehj) for i._Z13GPIO_SetValuehj
    ulib.o(.ARM.exidx) refers to ulib.o(i._Z14GPIO_ReadValueh) for i._Z14GPIO_ReadValueh
    ulib.o(.ARM.exidx) refers to ulib.o(i._Z11GPIO_Togglehj) for i._Z11GPIO_Togglehj
    ulib.o(.ARM.exidx) refers to ulib.o(i._Z12nrk_gpio_setj) for i._Z12nrk_gpio_setj
    ulib.o(.ARM.exidx) refers to ulib.o(i._Z12nrk_gpio_clrj) for i._Z12nrk_gpio_clrj
    ulib.o(.ARM.exidx) refers to ulib.o(i._Z12nrk_gpio_geth) for i._Z12nrk_gpio_geth
    ulib.o(.ARM.exidx) refers to ulib.o(i._Z15nrk_gpio_togglej) for i._Z15nrk_gpio_togglej
    ulib.o(.ARM.exidx) refers to ulib.o(i._Z18nrk_gpio_directionjh) for i._Z18nrk_gpio_directionjh
    ulib.o(.ARM.exidx) refers to ulib.o(i._Z14nrk_get_buttonh) for i._Z14nrk_get_buttonh
    ulib.o(.ARM.exidx) refers to ulib.o(i._Z14nrk_led_togglei) for i._Z14nrk_led_togglei
    ulib.o(.ARM.exidx) refers to ulib.o(i._Z11nrk_led_seti) for i._Z11nrk_led_seti
    ulib.o(.ARM.exidx) refers to ulib.o(i._Z11nrk_led_clri) for i._Z11nrk_led_clri
    ulib.o(.ARM.exidx) refers to ulib.o(i._Z16nrk_gpio_pullupsh) for i._Z16nrk_gpio_pullupsh
    ulib.o(.ARM.exidx) refers to ulib.o(i._Z5putc2c) for i._Z5putc2c
    ulib.o(.ARM.exidx) refers to ulib.o(i._Z5putc3c) for i._Z5putc3c
    ulib.o(.ARM.exidx) refers to ulib.o(i._Z17CLKPWR_GetPCLKSELj) for i._Z17CLKPWR_GetPCLKSELj
    ulib.o(.ARM.exidx) refers to ulib.o(i._Z14CLKPWR_GetPCLKj) for i._Z14CLKPWR_GetPCLKj
    ulib.o(.ARM.exidx) refers to ulib.o(i._Z17uart_set_divisorsP16LPC_UART_TypeDefj) for i._Z17uart_set_divisorsP16LPC_UART_TypeDefj
    ulib.o(.ARM.exidx) refers to ulib.o(i._Z9UART_InitP16LPC_UART_TypeDefP13UART_CFG_Type) for i._Z9UART_InitP16LPC_UART_TypeDefP13UART_CFG_Type
    ulib.o(.ARM.exidx) refers to ulib.o(i._Z21UART_ConfigStructInitP13UART_CFG_Type) for i._Z21UART_ConfigStructInitP13UART_CFG_Type
    ulib.o(.ARM.exidx) refers to ulib.o(i._Z11setup_uart3j) for i._Z11setup_uart3j
    ulib.o(.ARM.exidx) refers to ulib.o(i._Z11setup_uart2t) for i._Z11setup_uart2t
    ulib.o(.ARM.exidx) refers to ulib.o(i._Z14nrk_setup_uartj) for i._Z14nrk_setup_uartj
    ulib.o(.ARM.exidx) refers to ulib.o(i._Z5getc2v) for i._Z5getc2v
    nrk_cpu.o(i._Z16nrk_target_startv) refers to nrk_timer.o(i._Z16_nrk_setup_timerv) for _nrk_setup_timer()
    nrk_cpu.o(i._Z16nrk_task_set_stkP9task_typePjt) refers to nrk_error.o(i._Z13nrk_error_addh) for nrk_error_add(unsigned char)
    nrk_cpu.o(i._Z22nrk_stack_pointer_initv) refers to nrk.o(.bss) for nrk_kernel_stk
    nrk_cpu.o(i._Z22nrk_stack_pointer_initv) refers to nrk.o(.data) for nrk_kernel_stk_ptr
    nrk_cpu.o(i._Z22nrk_stack_pointer_initv) refers to nrk.o(i._nrk_timer_tick) for _nrk_timer_tick
    nrk_cpu.o(i._Z25nrk_stack_pointer_restorev) refers to nrk.o(.bss) for nrk_kernel_stk
    nrk_cpu.o(i._Z25nrk_stack_pointer_restorev) refers to nrk.o(i._nrk_timer_tick) for _nrk_timer_tick
    nrk_cpu.o(i._Z25nrk_stack_pointer_restorev) refers to nrk.o(.data) for nrk_kernel_stk_ptr
    nrk_cpu.o(.ARM.exidx) refers to nrk_cpu.o(i._Z16nrk_battery_savev) for i._Z16nrk_battery_savev
    nrk_cpu.o(.ARM.exidx) refers to nrk_cpu.o(i._Z9nrk_sleepv) for i._Z9nrk_sleepv
    nrk_cpu.o(.ARM.exidx) refers to nrk_cpu.o(i._Z8nrk_idlev) for i._Z8nrk_idlev
    nrk_cpu.o(.ARM.exidx) refers to nrk_cpu.o(i._Z27nrk_task_set_entry_functionP9task_typePFvvE) for i._Z27nrk_task_set_entry_functionP9task_typePFvvE
    nrk_cpu.o(.ARM.exidx) refers to nrk_cpu.o(i._Z16nrk_task_set_stkP9task_typePjt) for i._Z16nrk_task_set_stkP9task_typePjt
    nrk_cpu.o(.ARM.exidx) refers to nrk_cpu.o(i._Z17nrk_task_stk_initPFvvEPjS1_) for i._Z17nrk_task_stk_initPFvvEPjS1_
    nrk_cpu.o(.ARM.exidx) refers to nrk_cpu.o(i._Z22nrk_stack_pointer_initv) for i._Z22nrk_stack_pointer_initv
    nrk_cpu.o(.ARM.exidx) refers to nrk_cpu.o(i._Z25nrk_stack_pointer_restorev) for i._Z25nrk_stack_pointer_restorev
    nrk_cpu.o(.ARM.exidx) refers to nrk_cpu.o(i._Z16nrk_target_startv) for i._Z16nrk_target_startv
    nrk_ext_int.o(.ARM.exidx) refers to nrk_ext_int.o(i._Z18nrk_ext_int_enableh) for i._Z18nrk_ext_int_enableh
    nrk_ext_int.o(.ARM.exidx) refers to nrk_ext_int.o(i._Z19nrk_ext_int_disableh) for i._Z19nrk_ext_int_disableh
    nrk_ext_int.o(.ARM.exidx) refers to nrk_ext_int.o(i._Z21nrk_ext_int_configurehhPv) for i._Z21nrk_ext_int_configurehhPv
    nrk_status.o(.ARM.exidx) refers to nrk_status.o(i._Z18_nrk_startup_errorv) for i._Z18_nrk_startup_errorv
    nrk_timer.o(i.TIMER0_IRQHandler) refers to my_asm.o(.text) for _swap
    nrk_timer.o(i._Z16_nrk_setup_timerv) refers to nrk_timer.o(i._Z14NVIC_EnableIRQ4IRQn) for NVIC_EnableIRQ(IRQn)
    nrk_timer.o(i._Z16_nrk_setup_timerv) refers to nrk_timer.o(i._Z19_nrk_os_timer_resetv) for _nrk_os_timer_reset()
    nrk_timer.o(i._Z16_nrk_setup_timerv) refers to nrk_timer.o(i._Z19_nrk_os_timer_startv) for _nrk_os_timer_start()
    nrk_timer.o(i._Z16_nrk_setup_timerv) refers to nrk_timer.o(.data) for .data
    nrk_timer.o(i._Z16nrk_spin_wait_usj) refers to wait_api.c.lpc1768.arm.o(i.wait_us) for wait_us
    nrk_timer.o(i._Z19_nrk_os_timer_resetv) refers to nrk_timer.o(.data) for .data
    nrk_timer.o(i._Z25nrk_high_speed_timer_waittt) refers to nrk_timer.o(i._Z25_nrk_high_speed_timer_getv) for _nrk_high_speed_timer_get()
    nrk_timer.o(.ARM.exidx) refers to nrk_timer.o(i._Z16nrk_spin_wait_usj) for i._Z16nrk_spin_wait_usj
    nrk_timer.o(.ARM.exidx) refers to nrk_timer.o(i._Z19_nrk_os_timer_startv) for i._Z19_nrk_os_timer_startv
    nrk_timer.o(.ARM.exidx) refers to nrk_timer.o(i._Z19_nrk_os_timer_resetv) for i._Z19_nrk_os_timer_resetv
    nrk_timer.o(.ARM.exidx) refers to nrk_timer.o(i._Z16_nrk_setup_timerv) for i._Z16_nrk_setup_timerv
    nrk_timer.o(.ARM.exidx) refers to nrk_timer.o(i._Z26_nrk_high_speed_timer_stopv) for i._Z26_nrk_high_speed_timer_stopv
    nrk_timer.o(.ARM.exidx) refers to nrk_timer.o(i._Z27_nrk_high_speed_timer_startv) for i._Z27_nrk_high_speed_timer_startv
    nrk_timer.o(.ARM.exidx) refers to nrk_timer.o(i._Z27_nrk_high_speed_timer_resetv) for i._Z27_nrk_high_speed_timer_resetv
    nrk_timer.o(.ARM.exidx) refers to nrk_timer.o(i._Z25_nrk_high_speed_timer_getv) for i._Z25_nrk_high_speed_timer_getv
    nrk_timer.o(.ARM.exidx) refers to nrk_timer.o(i._Z25nrk_high_speed_timer_waittt) for i._Z25nrk_high_speed_timer_waittt
    nrk_timer.o(.ARM.exidx) refers to nrk_timer.o(i._Z18_nrk_os_timer_stopv) for i._Z18_nrk_os_timer_stopv
    nrk_timer.o(.ARM.exidx) refers to nrk_timer.o(i._Z17_nrk_os_timer_seth) for i._Z17_nrk_os_timer_seth
    nrk_timer.o(.ARM.exidx) refers to nrk_timer.o(i._Z20_nrk_get_next_wakeupv) for i._Z20_nrk_get_next_wakeupv
    nrk_timer.o(.ARM.exidx) refers to nrk_timer.o(i._Z20_nrk_set_next_wakeuph) for i._Z20_nrk_set_next_wakeuph
    nrk_timer.o(.ARM.exidx) refers to nrk_timer.o(i._Z18nrk_timer_int_stoph) for i._Z18nrk_timer_int_stoph
    nrk_timer.o(.ARM.exidx) refers to nrk_timer.o(i._Z19nrk_timer_int_reseth) for i._Z19nrk_timer_int_reseth
    nrk_timer.o(.ARM.exidx) refers to nrk_timer.o(i._Z18nrk_timer_int_readh) for i._Z18nrk_timer_int_readh
    nrk_timer.o(.ARM.exidx) refers to nrk_timer.o(i._Z19nrk_timer_int_starth) for i._Z19nrk_timer_int_starth
    nrk_timer.o(.ARM.exidx) refers to nrk_timer.o(i._Z23nrk_timer_int_configurehttPv) for i._Z23nrk_timer_int_configurehttPv
    nrk_timer.o(.ARM.exidx) refers to nrk_timer.o(i._Z17_nrk_os_timer_getv) for i._Z17_nrk_os_timer_getv
    nrk_timer.o(.ARM.exidx) refers to nrk_timer.o(i.TIMER0_IRQHandler) for i.TIMER0_IRQHandler
    nrk_timer.o(.ARM.exidx) refers to nrk_timer.o(i.TIMER1_IRQHandler) for i.TIMER1_IRQHandler
    nrk_timer.o(.ARM.exidx) refers to nrk_timer.o(i._Z14NVIC_EnableIRQ4IRQn) for i._Z14NVIC_EnableIRQ4IRQn
    nrk_watchdog.o(i._Z19nrk_watchdog_enablev) refers to fflt_clz.o(x$fpl$ffltu) for __aeabi_ui2f
    nrk_watchdog.o(i._Z19nrk_watchdog_enablev) refers to fmul.o(x$fpl$fmul) for __aeabi_fmul
    nrk_watchdog.o(i._Z19nrk_watchdog_enablev) refers to ffixu.o(x$fpl$ffixu) for __aeabi_f2uiz
    nrk_watchdog.o(i._Z19nrk_watchdog_enablev) refers to system_LPC17xx.o(.data) for SystemCoreClock
    nrk_watchdog.o(.ARM.exidx) refers to nrk_watchdog.o(i._Z20nrk_watchdog_disablev) for i._Z20nrk_watchdog_disablev
    nrk_watchdog.o(.ARM.exidx) refers to nrk_watchdog.o(i._Z19nrk_watchdog_enablev) for i._Z19nrk_watchdog_enablev
    nrk_watchdog.o(.ARM.exidx) refers to nrk_watchdog.o(i._Z18nrk_watchdog_checkv) for i._Z18nrk_watchdog_checkv
    nrk.o(i._Z12nrk_TCB_initP9task_typePjS1_tPvt) refers to nrk_error.o(i._Z20nrk_kernel_error_addhh) for nrk_kernel_error_add(unsigned char, unsigned char)
    nrk.o(i._Z12nrk_TCB_initP9task_typePjS1_tPvt) refers to nrk_time.o(i._Z18_nrk_time_to_ticksP10nrk_time_t) for _nrk_time_to_ticks(nrk_time_t*)
    nrk.o(i._Z12nrk_TCB_initP9task_typePjS1_tPvt) refers to nrk.o(.data) for .data
    nrk.o(i._Z12nrk_TCB_initP9task_typePjS1_tPvt) refers to nrk.o(.bss) for .bss
    nrk.o(i._Z8nrk_initv) refers to nrk_cpu.o(i._Z27nrk_task_set_entry_functionP9task_typePFvvE) for nrk_task_set_entry_function(task_type*, void(*)())
    nrk.o(i._Z8nrk_initv) refers to nrk_cpu.o(i._Z16nrk_task_set_stkP9task_typePjt) for nrk_task_set_stk(task_type*, unsigned*, unsigned short)
    nrk.o(i._Z8nrk_initv) refers to nrk_task.o(i._Z17nrk_activate_taskP9task_type) for nrk_activate_task(task_type*)
    nrk.o(i._Z8nrk_initv) refers to nrk.o(.data) for .data
    nrk.o(i._Z8nrk_initv) refers to nrk.o(.bss) for .bss
    nrk.o(i._Z8nrk_initv) refers to nrk_idle_task.o(i._Z13nrk_idle_taskv) for nrk_idle_task()
    nrk.o(i._Z9nrk_startv) refers to nrk_error.o(i._Z20nrk_kernel_error_addhh) for nrk_kernel_error_add(unsigned char, unsigned char)
    nrk.o(i._Z9nrk_startv) refers to nrk_task.o(i._Z26nrk_get_high_ready_task_IDv) for nrk_get_high_ready_task_ID()
    nrk.o(i._Z9nrk_startv) refers to nrk_cpu.o(i._Z16nrk_target_startv) for nrk_target_start()
    nrk.o(i._Z9nrk_startv) refers to nrk_cpu.o(i._Z22nrk_stack_pointer_initv) for nrk_stack_pointer_init()
    nrk.o(i._Z9nrk_startv) refers to my_asm.o(.text) for nrk_start_high_ready_task
    nrk.o(i._Z9nrk_startv) refers to nrk.o(.bss) for .bss
    nrk.o(i._Z9nrk_startv) refers to nrk.o(.data) for .data
    nrk.o(i._Z9nrk_startv) refers to nrk_scheduler.o(.data) for task_addr
    nrk.o(i._nrk_timer_tick) refers to nrk_scheduler.o(i._Z14_nrk_schedulerv) for _nrk_scheduler()
    nrk.o(.ARM.exidx) refers to nrk.o(i._Z15nrk_int_disablev) for i._Z15nrk_int_disablev
    nrk.o(.ARM.exidx) refers to nrk.o(i._Z14nrk_int_enablev) for i._Z14nrk_int_enablev
    nrk.o(.ARM.exidx) refers to nrk.o(i._Z8nrk_haltv) for i._Z8nrk_haltv
    nrk.o(.ARM.exidx) refers to nrk.o(i._Z8nrk_initv) for i._Z8nrk_initv
    nrk.o(.ARM.exidx) refers to nrk.o(i._Z9nrk_startv) for i._Z9nrk_startv
    nrk.o(.ARM.exidx) refers to nrk.o(i._Z12nrk_TCB_initP9task_typePjS1_tPvt) for i._Z12nrk_TCB_initP9task_typePjS1_tPvt
    nrk.o(.ARM.exidx) refers to nrk.o(i._nrk_timer_tick) for i._nrk_timer_tick
    nrk.o(.ARM.exidx) refers to nrk.o(i._Z11nrk_versionv) for i._Z11nrk_versionv
    nrk_driver.o(i._Z14nrk_get_statushh) refers to nrk_error.o(i._Z14_nrk_errno_seth) for _nrk_errno_set(unsigned char)
    nrk_driver.o(i._Z14nrk_get_statushh) refers to nrk_driver.o(.data) for .data
    nrk_driver.o(i._Z14nrk_set_statushhh) refers to nrk_error.o(i._Z14_nrk_errno_seth) for _nrk_errno_set(unsigned char)
    nrk_driver.o(i._Z14nrk_set_statushhh) refers to nrk_driver.o(.data) for .data
    nrk_driver.o(i._Z19nrk_register_driverPFhhhPhhEh) refers to nrk_driver.o(.data) for .data
    nrk_driver.o(i._Z8nrk_openhh) refers to nrk_driver.o(.data) for .data
    nrk_driver.o(i._Z8nrk_readhPhh) refers to nrk_error.o(i._Z14_nrk_errno_seth) for _nrk_errno_set(unsigned char)
    nrk_driver.o(i._Z8nrk_readhPhh) refers to nrk_driver.o(.data) for .data
    nrk_driver.o(i._Z9nrk_closeh) refers to nrk_error.o(i._Z14_nrk_errno_seth) for _nrk_errno_set(unsigned char)
    nrk_driver.o(i._Z9nrk_closeh) refers to nrk_driver.o(.data) for .data
    nrk_driver.o(i._Z9nrk_writehPhh) refers to nrk_error.o(i._Z14_nrk_errno_seth) for _nrk_errno_set(unsigned char)
    nrk_driver.o(i._Z9nrk_writehPhh) refers to nrk_driver.o(.data) for .data
    nrk_driver.o(.ARM.exidx) refers to nrk_driver.o(i._Z19nrk_register_driverPFhhhPhhEh) for i._Z19nrk_register_driverPFhhhPhhEh
    nrk_driver.o(.ARM.exidx) refers to nrk_driver.o(i._Z8nrk_openhh) for i._Z8nrk_openhh
    nrk_driver.o(.ARM.exidx) refers to nrk_driver.o(i._Z9nrk_closeh) for i._Z9nrk_closeh
    nrk_driver.o(.ARM.exidx) refers to nrk_driver.o(i._Z9nrk_writehPhh) for i._Z9nrk_writehPhh
    nrk_driver.o(.ARM.exidx) refers to nrk_driver.o(i._Z8nrk_readhPhh) for i._Z8nrk_readhPhh
    nrk_driver.o(.ARM.exidx) refers to nrk_driver.o(i._Z14nrk_set_statushhh) for i._Z14nrk_set_statushhh
    nrk_driver.o(.ARM.exidx) refers to nrk_driver.o(i._Z14nrk_get_statushh) for i._Z14nrk_get_statushh
    nrk_error.o(i._Z10blink_dashv) refers to ulib.o(i._Z11nrk_led_seti) for nrk_led_set(int)
    nrk_error.o(i._Z10blink_dashv) refers to nrk_error.o(i._Z5pausev) for pause()
    nrk_error.o(i._Z10blink_dashv) refers to ulib.o(i._Z11nrk_led_clri) for nrk_led_clr(int)
    nrk_error.o(i._Z13nrk_errno_getv) refers to nrk.o(.data) for nrk_cur_task_TCB
    nrk_error.o(i._Z13nrk_error_addh) refers to nrk_error.o(.data) for .data
    nrk_error.o(i._Z13nrk_error_addh) refers to nrk.o(.data) for nrk_cur_task_TCB
    nrk_error.o(i._Z13nrk_error_getPhS_) refers to nrk_error.o(.data) for .data
    nrk_error.o(i._Z14_nrk_errno_seth) refers to nrk.o(.data) for nrk_cur_task_TCB
    nrk_error.o(i._Z15nrk_error_printv) refers to _printf_percent.o(.ARM.Collect$$_printf_percent$$00000000) for _printf_percent
    nrk_error.o(i._Z15nrk_error_printv) refers to _printf_d.o(.ARM.Collect$$_printf_percent$$00000009) for _printf_d
    nrk_error.o(i._Z15nrk_error_printv) refers to _printf_dec.o(.text) for _printf_int_dec
    nrk_error.o(i._Z15nrk_error_printv) refers to nrk.o(i._Z15nrk_int_disablev) for nrk_int_disable()
    nrk_error.o(i._Z15nrk_error_printv) refers to ulib.o(i._Z11nrk_kprintfPKc) for nrk_kprintf(const char*)
    nrk_error.o(i._Z15nrk_error_printv) refers to __2printf.o(.text) for __2printf
    nrk_error.o(i._Z15nrk_error_printv) refers to putc.o(.text) for putc
    nrk_error.o(i._Z15nrk_error_printv) refers to nrk_error.o(.data) for .data
    nrk_error.o(i._Z15nrk_error_printv) refers to stdio_streams.o(.bss) for __stdout
    nrk_error.o(i._Z20nrk_kernel_error_addhh) refers to nrk_error.o(.data) for .data
    nrk_error.o(i._Z22blink_morse_code_errorh) refers to _printf_percent.o(.ARM.Collect$$_printf_percent$$00000000) for _printf_percent
    nrk_error.o(i._Z22blink_morse_code_errorh) refers to _printf_d.o(.ARM.Collect$$_printf_percent$$00000009) for _printf_d
    nrk_error.o(i._Z22blink_morse_code_errorh) refers to _printf_dec.o(.text) for _printf_int_dec
    nrk_error.o(i._Z22blink_morse_code_errorh) refers to __2sprintf.o(.text) for __2sprintf
    nrk_error.o(i._Z22blink_morse_code_errorh) refers to nrk_error.o(i._Z10blink_dashv) for blink_dash()
    nrk_error.o(i._Z22blink_morse_code_errorh) refers to nrk_error.o(i._Z9blink_dotv) for blink_dot()
    nrk_error.o(i._Z22blink_morse_code_errorh) refers to nrk_error.o(i._Z5pausev) for pause()
    nrk_error.o(i._Z22blink_morse_code_errorh) refers to strlen.o(.text) for strlen
    nrk_error.o(i._Z5pausev) refers to nrk_timer.o(i._Z16nrk_spin_wait_usj) for nrk_spin_wait_us(unsigned)
    nrk_error.o(i._Z9blink_dotv) refers to ulib.o(i._Z11nrk_led_seti) for nrk_led_set(int)
    nrk_error.o(i._Z9blink_dotv) refers to nrk_error.o(i._Z5pausev) for pause()
    nrk_error.o(i._Z9blink_dotv) refers to ulib.o(i._Z11nrk_led_clri) for nrk_led_clr(int)
    nrk_error.o(.ARM.exidx) refers to nrk_error.o(i._Z14_nrk_errno_seth) for i._Z14_nrk_errno_seth
    nrk_error.o(.ARM.exidx) refers to nrk_error.o(i._Z13nrk_errno_getv) for i._Z13nrk_errno_getv
    nrk_error.o(.ARM.exidx) refers to nrk_error.o(i._Z13nrk_error_addh) for i._Z13nrk_error_addh
    nrk_error.o(.ARM.exidx) refers to nrk_error.o(i._Z20nrk_kernel_error_addhh) for i._Z20nrk_kernel_error_addhh
    nrk_error.o(.ARM.exidx) refers to nrk_error.o(i._Z13nrk_error_getPhS_) for i._Z13nrk_error_getPhS_
    nrk_error.o(.ARM.exidx) refers to nrk_error.o(i._Z15nrk_error_printv) for i._Z15nrk_error_printv
    nrk_error.o(.ARM.exidx) refers to nrk_error.o(i._Z5pausev) for i._Z5pausev
    nrk_error.o(.ARM.exidx) refers to nrk_error.o(i._Z10blink_dashv) for i._Z10blink_dashv
    nrk_error.o(.ARM.exidx) refers to nrk_error.o(i._Z9blink_dotv) for i._Z9blink_dotv
    nrk_error.o(.ARM.exidx) refers to nrk_error.o(i._Z22blink_morse_code_errorh) for i._Z22blink_morse_code_errorh
    nrk_events.o(i._Z12nrk_sem_pendP14semaphore_type) refers to nrk_events.o(i._Z22nrk_get_resource_indexP14semaphore_type) for nrk_get_resource_index(semaphore_type*)
    nrk_events.o(i._Z12nrk_sem_pendP14semaphore_type) refers to nrk.o(i._Z15nrk_int_disablev) for nrk_int_disable()
    nrk_events.o(i._Z12nrk_sem_pendP14semaphore_type) refers to nrk_error.o(i._Z14_nrk_errno_seth) for _nrk_errno_set(unsigned char)
    nrk_events.o(i._Z12nrk_sem_pendP14semaphore_type) refers to nrk.o(i._Z14nrk_int_enablev) for nrk_int_enable()
    nrk_events.o(i._Z12nrk_sem_pendP14semaphore_type) refers to nrk_task.o(i._Z20nrk_wait_until_tickst) for nrk_wait_until_ticks(unsigned short)
    nrk_events.o(i._Z12nrk_sem_pendP14semaphore_type) refers to nrk.o(.data) for nrk_sem_list
    nrk_events.o(i._Z12nrk_sem_pendP14semaphore_type) refers to nrk.o(.data) for nrk_cur_task_TCB
    nrk_events.o(i._Z12nrk_sem_postP14semaphore_type) refers to nrk_events.o(i._Z22nrk_get_resource_indexP14semaphore_type) for nrk_get_resource_index(semaphore_type*)
    nrk_events.o(i._Z12nrk_sem_postP14semaphore_type) refers to nrk.o(i._Z15nrk_int_disablev) for nrk_int_disable()
    nrk_events.o(i._Z12nrk_sem_postP14semaphore_type) refers to nrk_error.o(i._Z14_nrk_errno_seth) for _nrk_errno_set(unsigned char)
    nrk_events.o(i._Z12nrk_sem_postP14semaphore_type) refers to nrk.o(i._Z14nrk_int_enablev) for nrk_int_enable()
    nrk_events.o(i._Z12nrk_sem_postP14semaphore_type) refers to nrk.o(.data) for nrk_sem_list
    nrk_events.o(i._Z12nrk_sem_postP14semaphore_type) refers to nrk.o(.data) for nrk_cur_task_TCB
    nrk_events.o(i._Z12nrk_sem_postP14semaphore_type) refers to nrk.o(.bss) for nrk_task_TCB
    nrk_events.o(i._Z13nrk_sem_queryP14semaphore_type) refers to nrk_events.o(i._Z22nrk_get_resource_indexP14semaphore_type) for nrk_get_resource_index(semaphore_type*)
    nrk_events.o(i._Z13nrk_sem_queryP14semaphore_type) refers to nrk_error.o(i._Z14_nrk_errno_seth) for _nrk_errno_set(unsigned char)
    nrk_events.o(i._Z13nrk_sem_queryP14semaphore_type) refers to nrk.o(.data) for nrk_sem_list
    nrk_events.o(i._Z14nrk_event_waitj) refers to nrk_task.o(i._Z17nrk_wait_until_nwv) for nrk_wait_until_nw()
    nrk_events.o(i._Z14nrk_event_waitj) refers to nrk_task.o(i._Z20nrk_wait_until_tickst) for nrk_wait_until_ticks(unsigned short)
    nrk_events.o(i._Z14nrk_event_waitj) refers to nrk.o(.data) for nrk_cur_task_TCB
    nrk_events.o(i._Z14nrk_event_waitj) refers to nrk.o(.data) for nrk_wakeup_signal
    nrk_events.o(i._Z14nrk_sem_createhh) refers to nrk.o(.data) for _nrk_resource_cnt
    nrk_events.o(i._Z14nrk_sem_createhh) refers to nrk.o(.data) for nrk_sem_list
    nrk_events.o(i._Z14nrk_sem_deleteP14semaphore_type) refers to nrk_events.o(i._Z22nrk_get_resource_indexP14semaphore_type) for nrk_get_resource_index(semaphore_type*)
    nrk_events.o(i._Z14nrk_sem_deleteP14semaphore_type) refers to nrk_error.o(i._Z14_nrk_errno_seth) for _nrk_errno_set(unsigned char)
    nrk_events.o(i._Z14nrk_sem_deleteP14semaphore_type) refers to nrk.o(.data) for nrk_sem_list
    nrk_events.o(i._Z14nrk_sem_deleteP14semaphore_type) refers to nrk.o(.data) for _nrk_resource_cnt
    nrk_events.o(i._Z16nrk_event_signala) refers to nrk.o(i._Z15nrk_int_disablev) for nrk_int_disable()
    nrk_events.o(i._Z16nrk_event_signala) refers to nrk.o(i._Z14nrk_int_enablev) for nrk_int_enable()
    nrk_events.o(i._Z16nrk_event_signala) refers to nrk_error.o(i._Z14_nrk_errno_seth) for _nrk_errno_set(unsigned char)
    nrk_events.o(i._Z16nrk_event_signala) refers to nrk_events.o(.data) for .data
    nrk_events.o(i._Z16nrk_event_signala) refers to nrk.o(.bss) for nrk_task_TCB
    nrk_events.o(i._Z17nrk_signal_createv) refers to nrk_events.o(.data) for .data
    nrk_events.o(i._Z17nrk_signal_deletea) refers to nrk.o(i._Z15nrk_int_disablev) for nrk_int_disable()
    nrk_events.o(i._Z17nrk_signal_deletea) refers to nrk.o(i._Z14nrk_int_enablev) for nrk_int_enable()
    nrk_events.o(i._Z17nrk_signal_deletea) refers to nrk_events.o(.data) for .data
    nrk_events.o(i._Z17nrk_signal_deletea) refers to nrk.o(.bss) for nrk_task_TCB
    nrk_events.o(i._Z19nrk_signal_registera) refers to nrk_events.o(.data) for .data
    nrk_events.o(i._Z19nrk_signal_registera) refers to nrk.o(.data) for nrk_cur_task_TCB
    nrk_events.o(i._Z21nrk_signal_unregistera) refers to nrk.o(.data) for nrk_cur_task_TCB
    nrk_events.o(i._Z22nrk_get_resource_indexP14semaphore_type) refers to nrk.o(.data) for nrk_sem_list
    nrk_events.o(i._Z30nrk_signal_get_registered_maskv) refers to nrk.o(.data) for nrk_cur_task_TCB
    nrk_events.o(.ARM.exidx) refers to nrk_events.o(i._Z17nrk_signal_createv) for i._Z17nrk_signal_createv
    nrk_events.o(.ARM.exidx) refers to nrk_events.o(i._Z30nrk_signal_get_registered_maskv) for i._Z30nrk_signal_get_registered_maskv
    nrk_events.o(.ARM.exidx) refers to nrk_events.o(i._Z17nrk_signal_deletea) for i._Z17nrk_signal_deletea
    nrk_events.o(.ARM.exidx) refers to nrk_events.o(i._Z21nrk_signal_unregistera) for i._Z21nrk_signal_unregistera
    nrk_events.o(.ARM.exidx) refers to nrk_events.o(i._Z19nrk_signal_registera) for i._Z19nrk_signal_registera
    nrk_events.o(.ARM.exidx) refers to nrk_events.o(i._Z16nrk_event_signala) for i._Z16nrk_event_signala
    nrk_events.o(.ARM.exidx) refers to nrk_events.o(i._Z14nrk_event_waitj) for i._Z14nrk_event_waitj
    nrk_events.o(.ARM.exidx) refers to nrk_events.o(i._Z22nrk_get_resource_indexP14semaphore_type) for i._Z22nrk_get_resource_indexP14semaphore_type
    nrk_events.o(.ARM.exidx) refers to nrk_events.o(i._Z13nrk_sem_queryP14semaphore_type) for i._Z13nrk_sem_queryP14semaphore_type
    nrk_events.o(.ARM.exidx) refers to nrk_events.o(i._Z12nrk_sem_pendP14semaphore_type) for i._Z12nrk_sem_pendP14semaphore_type
    nrk_events.o(.ARM.exidx) refers to nrk_events.o(i._Z12nrk_sem_postP14semaphore_type) for i._Z12nrk_sem_postP14semaphore_type
    nrk_events.o(.ARM.exidx) refers to nrk_events.o(i._Z14nrk_sem_deleteP14semaphore_type) for i._Z14nrk_sem_deleteP14semaphore_type
    nrk_events.o(.ARM.exidx) refers to nrk_events.o(i._Z14nrk_sem_createhh) for i._Z14nrk_sem_createhh
    nrk_idle_task.o(i._Z13nrk_idle_taskv) refers to nrk_timer.o(i._Z20_nrk_get_next_wakeupv) for _nrk_get_next_wakeup()
    nrk_idle_task.o(i._Z13nrk_idle_taskv) refers to nrk_scheduler.o(.data) for _nrk_cpu_state
    nrk_idle_task.o(.ARM.exidx) refers to nrk_idle_task.o(i._Z13nrk_idle_taskv) for i._Z13nrk_idle_taskv
    nrk_scheduler.o(i._Z14_nrk_schedulerv) refers to nrk.o(i._Z15nrk_int_disablev) for nrk_int_disable()
    nrk_scheduler.o(i._Z14_nrk_schedulerv) refers to nrk_timer.o(i._Z27_nrk_high_speed_timer_resetv) for _nrk_high_speed_timer_reset()
    nrk_scheduler.o(i._Z14_nrk_schedulerv) refers to nrk_timer.o(i._Z25_nrk_high_speed_timer_getv) for _nrk_high_speed_timer_get()
    nrk_scheduler.o(i._Z14_nrk_schedulerv) refers to nrk_timer.o(i._Z20_nrk_set_next_wakeuph) for _nrk_set_next_wakeup(unsigned char)
    nrk_scheduler.o(i._Z14_nrk_schedulerv) refers to nrk_task.o(i._Z19nrk_rem_from_readyQa) for nrk_rem_from_readyQ(signed char)
    nrk_scheduler.o(i._Z14_nrk_schedulerv) refers to nrk_error.o(i._Z20nrk_kernel_error_addhh) for nrk_kernel_error_add(unsigned char, unsigned char)
    nrk_scheduler.o(i._Z14_nrk_schedulerv) refers to nrk_task.o(i._Z17nrk_add_to_readyQa) for nrk_add_to_readyQ(signed char)
    nrk_scheduler.o(i._Z14_nrk_schedulerv) refers to nrk_task.o(i._Z26nrk_get_high_ready_task_IDv) for nrk_get_high_ready_task_ID()
    nrk_scheduler.o(i._Z14_nrk_schedulerv) refers to nrk_timer.o(i._Z17_nrk_os_timer_getv) for _nrk_os_timer_get()
    nrk_scheduler.o(i._Z14_nrk_schedulerv) refers to nrk_timer.o(i._Z25nrk_high_speed_timer_waittt) for nrk_high_speed_timer_wait(unsigned short, unsigned short)
    nrk_scheduler.o(i._Z14_nrk_schedulerv) refers to nrk_cpu.o(i._Z25nrk_stack_pointer_restorev) for nrk_stack_pointer_restore()
    nrk_scheduler.o(i._Z14_nrk_schedulerv) refers to my_asm.o(.text) for Switch
    nrk_scheduler.o(i._Z14_nrk_schedulerv) refers to nrk.o(.data) for nrk_system_time
    nrk_scheduler.o(i._Z14_nrk_schedulerv) refers to nrk_timer.o(.data) for _nrk_prev_timer_val
    nrk_scheduler.o(i._Z14_nrk_schedulerv) refers to nrk.o(.data) for nrk_cur_task_TCB
    nrk_scheduler.o(i._Z14_nrk_schedulerv) refers to nrk.o(.bss) for nrk_task_TCB
    nrk_scheduler.o(i._Z14_nrk_schedulerv) refers to nrk.o(.data) for nrk_wakeup_signal
    nrk_scheduler.o(i._Z14_nrk_schedulerv) refers to nrk_scheduler.o(.data) for .data
    nrk_scheduler.o(.ARM.exidx) refers to nrk_scheduler.o(i._Z14_nrk_schedulerv) for i._Z14_nrk_schedulerv
    nrk_stack_check.o(i._Z15dump_stack_infov) refers to _printf_percent.o(.ARM.Collect$$_printf_percent$$00000000) for _printf_percent
    nrk_stack_check.o(i._Z15dump_stack_infov) refers to _printf_d.o(.ARM.Collect$$_printf_percent$$00000009) for _printf_d
    nrk_stack_check.o(i._Z15dump_stack_infov) refers to _printf_dec.o(.text) for _printf_int_dec
    nrk_stack_check.o(i._Z15dump_stack_infov) refers to _printf_x.o(.ARM.Collect$$_printf_percent$$0000000C) for _printf_x
    nrk_stack_check.o(i._Z15dump_stack_infov) refers to _printf_hex_int_ll_ptr.o(.text) for _printf_longlong_hex
    nrk_stack_check.o(i._Z15dump_stack_infov) refers to ulib.o(i._Z11nrk_kprintfPKc) for nrk_kprintf(const char*)
    nrk_stack_check.o(i._Z15dump_stack_infov) refers to __2printf.o(.text) for __2printf
    nrk_stack_check.o(i._Z15dump_stack_infov) refers to nrk.o(.data) for nrk_cur_task_TCB
    nrk_stack_check.o(i._Z15dump_stack_infov) refers to nrk.o(.bss) for nrk_task_TCB
    nrk_stack_check.o(.ARM.exidx) refers to nrk_stack_check.o(i._Z15dump_stack_infov) for i._Z15dump_stack_infov
    nrk_stack_check.o(.ARM.exidx) refers to nrk_stack_check.o(i._Z15nrk_stack_checkv) for i._Z15nrk_stack_checkv
    nrk_stack_check.o(.ARM.exidx) refers to nrk_stack_check.o(i._Z19nrk_stack_check_pida) for i._Z19nrk_stack_check_pida
    nrk_task.o(i._Z11nrk_get_pidv) refers to nrk.o(.data) for nrk_cur_task_TCB
    nrk_task.o(i._Z14nrk_wait_tickst) refers to nrk.o(i._Z15nrk_int_disablev) for nrk_int_disable()
    nrk_task.o(i._Z14nrk_wait_tickst) refers to nrk_timer.o(i._Z17_nrk_os_timer_getv) for _nrk_os_timer_get()
    nrk_task.o(i._Z14nrk_wait_tickst) refers to nrk_timer.o(i._Z20_nrk_get_next_wakeupv) for _nrk_get_next_wakeup()
    nrk_task.o(i._Z14nrk_wait_tickst) refers to nrk_timer.o(i._Z20_nrk_set_next_wakeuph) for _nrk_set_next_wakeup(unsigned char)
    nrk_task.o(i._Z14nrk_wait_tickst) refers to nrk.o(i._Z14nrk_int_enablev) for nrk_int_enable()
    nrk_task.o(i._Z14nrk_wait_tickst) refers to nrk_task.o(i._Z23_nrk_wait_for_schedulerv) for _nrk_wait_for_scheduler()
    nrk_task.o(i._Z14nrk_wait_tickst) refers to nrk.o(.data) for nrk_cur_task_TCB
    nrk_task.o(i._Z14nrk_wait_tickst) refers to nrk_timer.o(.data) for _nrk_prev_timer_val
    nrk_task.o(i._Z14nrk_wait_until10nrk_time_t) refers to nrk_time.o(i._Z12nrk_time_getP10nrk_time_t) for nrk_time_get(nrk_time_t*)
    nrk_task.o(i._Z14nrk_wait_until10nrk_time_t) refers to nrk_time.o(i._Z12nrk_time_subP10nrk_time_tS_S_) for nrk_time_sub(nrk_time_t*, nrk_time_t, nrk_time_t)
    nrk_task.o(i._Z14nrk_wait_until10nrk_time_t) refers to nrk_task.o(i._Z8nrk_wait10nrk_time_t) for nrk_wait(nrk_time_t)
    nrk_task.o(i._Z16nrk_print_readyQv) refers to nrk.o(.data) for _head_node
    nrk_task.o(i._Z17nrk_activate_taskP9task_type) refers to nrk_cpu.o(i._Z17nrk_task_stk_initPFvvEPjS1_) for nrk_task_stk_init(void(*)(), unsigned*, unsigned*)
    nrk_task.o(i._Z17nrk_activate_taskP9task_type) refers to nrk.o(i._Z12nrk_TCB_initP9task_typePjS1_tPvt) for nrk_TCB_init(task_type*, unsigned*, unsigned*, unsigned short, void*, unsigned short)
    nrk_task.o(i._Z17nrk_activate_taskP9task_type) refers to nrk_task.o(i._Z17nrk_add_to_readyQa) for nrk_add_to_readyQ(signed char)
    nrk_task.o(i._Z17nrk_activate_taskP9task_type) refers to nrk.o(.bss) for nrk_task_TCB
    nrk_task.o(i._Z17nrk_add_to_readyQa) refers to nrk.o(.data) for _free_node
    nrk_task.o(i._Z17nrk_add_to_readyQa) refers to nrk.o(.bss) for nrk_task_TCB
    nrk_task.o(i._Z17nrk_wait_until_nwv) refers to nrk.o(i._Z15nrk_int_disablev) for nrk_int_disable()
    nrk_task.o(i._Z17nrk_wait_until_nwv) refers to nrk_timer.o(i._Z17_nrk_os_timer_getv) for _nrk_os_timer_get()
    nrk_task.o(i._Z17nrk_wait_until_nwv) refers to nrk_timer.o(i._Z20_nrk_get_next_wakeupv) for _nrk_get_next_wakeup()
    nrk_task.o(i._Z17nrk_wait_until_nwv) refers to nrk_timer.o(i._Z20_nrk_set_next_wakeuph) for _nrk_set_next_wakeup(unsigned char)
    nrk_task.o(i._Z17nrk_wait_until_nwv) refers to nrk.o(i._Z14nrk_int_enablev) for nrk_int_enable()
    nrk_task.o(i._Z17nrk_wait_until_nwv) refers to nrk_task.o(i._Z23_nrk_wait_for_schedulerv) for _nrk_wait_for_scheduler()
    nrk_task.o(i._Z17nrk_wait_until_nwv) refers to nrk.o(.data) for nrk_cur_task_TCB
    nrk_task.o(i._Z17nrk_wait_until_nwv) refers to nrk_timer.o(.data) for _nrk_prev_timer_val
    nrk_task.o(i._Z18nrk_terminate_taskv) refers to nrk_task.o(i._Z19nrk_rem_from_readyQa) for nrk_rem_from_readyQ(signed char)
    nrk_task.o(i._Z18nrk_terminate_taskv) refers to nrk_task.o(i._Z26nrk_wait_until_next_periodv) for nrk_wait_until_next_period()
    nrk_task.o(i._Z18nrk_terminate_taskv) refers to nrk.o(.data) for nrk_cur_task_TCB
    nrk_task.o(i._Z19nrk_rem_from_readyQa) refers to nrk.o(.data) for _head_node
    nrk_task.o(i._Z19nrk_set_next_wakeup10nrk_time_t) refers to nrk.o(i._Z15nrk_int_disablev) for nrk_int_disable()
    nrk_task.o(i._Z19nrk_set_next_wakeup10nrk_time_t) refers to nrk_timer.o(i._Z17_nrk_os_timer_getv) for _nrk_os_timer_get()
    nrk_task.o(i._Z19nrk_set_next_wakeup10nrk_time_t) refers to nrk_time.o(i._Z18_nrk_time_to_ticksP10nrk_time_t) for _nrk_time_to_ticks(nrk_time_t*)
    nrk_task.o(i._Z19nrk_set_next_wakeup10nrk_time_t) refers to nrk.o(i._Z14nrk_int_enablev) for nrk_int_enable()
    nrk_task.o(i._Z19nrk_set_next_wakeup10nrk_time_t) refers to nrk.o(.data) for nrk_cur_task_TCB
    nrk_task.o(i._Z20nrk_wait_until_tickst) refers to nrk.o(i._Z15nrk_int_disablev) for nrk_int_disable()
    nrk_task.o(i._Z20nrk_wait_until_tickst) refers to nrk_timer.o(i._Z17_nrk_os_timer_getv) for _nrk_os_timer_get()
    nrk_task.o(i._Z20nrk_wait_until_tickst) refers to nrk_timer.o(i._Z20_nrk_get_next_wakeupv) for _nrk_get_next_wakeup()
    nrk_task.o(i._Z20nrk_wait_until_tickst) refers to nrk_timer.o(i._Z20_nrk_set_next_wakeuph) for _nrk_set_next_wakeup(unsigned char)
    nrk_task.o(i._Z20nrk_wait_until_tickst) refers to nrk.o(i._Z14nrk_int_enablev) for nrk_int_enable()
    nrk_task.o(i._Z20nrk_wait_until_tickst) refers to nrk_task.o(i._Z23_nrk_wait_for_schedulerv) for _nrk_wait_for_scheduler()
    nrk_task.o(i._Z20nrk_wait_until_tickst) refers to nrk.o(.data) for nrk_cur_task_TCB
    nrk_task.o(i._Z20nrk_wait_until_tickst) refers to nrk_timer.o(.data) for _nrk_prev_timer_val
    nrk_task.o(i._Z26nrk_get_high_ready_task_IDv) refers to nrk.o(.data) for _head_node
    nrk_task.o(i._Z26nrk_wait_until_next_periodv) refers to nrk.o(i._Z15nrk_int_disablev) for nrk_int_disable()
    nrk_task.o(i._Z26nrk_wait_until_next_periodv) refers to nrk_timer.o(i._Z17_nrk_os_timer_getv) for _nrk_os_timer_get()
    nrk_task.o(i._Z26nrk_wait_until_next_periodv) refers to nrk_timer.o(i._Z20_nrk_get_next_wakeupv) for _nrk_get_next_wakeup()
    nrk_task.o(i._Z26nrk_wait_until_next_periodv) refers to nrk_timer.o(i._Z20_nrk_set_next_wakeuph) for _nrk_set_next_wakeup(unsigned char)
    nrk_task.o(i._Z26nrk_wait_until_next_periodv) refers to nrk.o(i._Z14nrk_int_enablev) for nrk_int_enable()
    nrk_task.o(i._Z26nrk_wait_until_next_periodv) refers to nrk_task.o(i._Z23_nrk_wait_for_schedulerv) for _nrk_wait_for_scheduler()
    nrk_task.o(i._Z26nrk_wait_until_next_periodv) refers to nrk.o(.data) for nrk_cur_task_TCB
    nrk_task.o(i._Z26nrk_wait_until_next_periodv) refers to nrk_timer.o(.data) for _nrk_prev_timer_val
    nrk_task.o(i._Z29nrk_wait_until_next_n_periodst) refers to nrk_stack_check.o(i._Z15nrk_stack_checkv) for nrk_stack_check()
    nrk_task.o(i._Z29nrk_wait_until_next_n_periodst) refers to nrk.o(i._Z15nrk_int_disablev) for nrk_int_disable()
    nrk_task.o(i._Z29nrk_wait_until_next_n_periodst) refers to nrk_timer.o(i._Z17_nrk_os_timer_getv) for _nrk_os_timer_get()
    nrk_task.o(i._Z29nrk_wait_until_next_n_periodst) refers to nrk_timer.o(i._Z20_nrk_get_next_wakeupv) for _nrk_get_next_wakeup()
    nrk_task.o(i._Z29nrk_wait_until_next_n_periodst) refers to nrk_timer.o(i._Z20_nrk_set_next_wakeuph) for _nrk_set_next_wakeup(unsigned char)
    nrk_task.o(i._Z29nrk_wait_until_next_n_periodst) refers to nrk.o(i._Z14nrk_int_enablev) for nrk_int_enable()
    nrk_task.o(i._Z29nrk_wait_until_next_n_periodst) refers to nrk_task.o(i._Z23_nrk_wait_for_schedulerv) for _nrk_wait_for_scheduler()
    nrk_task.o(i._Z29nrk_wait_until_next_n_periodst) refers to nrk.o(.data) for nrk_cur_task_TCB
    nrk_task.o(i._Z29nrk_wait_until_next_n_periodst) refers to nrk_timer.o(.data) for _nrk_prev_timer_val
    nrk_task.o(i._Z8nrk_wait10nrk_time_t) refers to nrk_stack_check.o(i._Z15nrk_stack_checkv) for nrk_stack_check()
    nrk_task.o(i._Z8nrk_wait10nrk_time_t) refers to nrk.o(i._Z15nrk_int_disablev) for nrk_int_disable()
    nrk_task.o(i._Z8nrk_wait10nrk_time_t) refers to nrk_timer.o(i._Z17_nrk_os_timer_getv) for _nrk_os_timer_get()
    nrk_task.o(i._Z8nrk_wait10nrk_time_t) refers to nrk_time.o(i._Z18_nrk_time_to_ticksP10nrk_time_t) for _nrk_time_to_ticks(nrk_time_t*)
    nrk_task.o(i._Z8nrk_wait10nrk_time_t) refers to nrk_timer.o(i._Z20_nrk_get_next_wakeupv) for _nrk_get_next_wakeup()
    nrk_task.o(i._Z8nrk_wait10nrk_time_t) refers to nrk_timer.o(i._Z20_nrk_set_next_wakeuph) for _nrk_set_next_wakeup(unsigned char)
    nrk_task.o(i._Z8nrk_wait10nrk_time_t) refers to nrk.o(i._Z14nrk_int_enablev) for nrk_int_enable()
    nrk_task.o(i._Z8nrk_wait10nrk_time_t) refers to nrk_task.o(i._Z23_nrk_wait_for_schedulerv) for _nrk_wait_for_scheduler()
    nrk_task.o(i._Z8nrk_wait10nrk_time_t) refers to nrk.o(.data) for nrk_cur_task_TCB
    nrk_task.o(i._Z8nrk_wait10nrk_time_t) refers to nrk_timer.o(.data) for _nrk_prev_timer_val
    nrk_task.o(.ARM.exidx) refers to nrk_task.o(i._Z26nrk_get_high_ready_task_IDv) for i._Z26nrk_get_high_ready_task_IDv
    nrk_task.o(.ARM.exidx) refers to nrk_task.o(i._Z16nrk_print_readyQv) for i._Z16nrk_print_readyQv
    nrk_task.o(.ARM.exidx) refers to nrk_task.o(i._Z17nrk_add_to_readyQa) for i._Z17nrk_add_to_readyQa
    nrk_task.o(.ARM.exidx) refers to nrk_task.o(i._Z19nrk_rem_from_readyQa) for i._Z19nrk_rem_from_readyQa
    nrk_task.o(.ARM.exidx) refers to nrk_task.o(i._Z17nrk_activate_taskP9task_type) for i._Z17nrk_activate_taskP9task_type
    nrk_task.o(.ARM.exidx) refers to nrk_task.o(i._Z26nrk_wait_until_next_periodv) for i._Z26nrk_wait_until_next_periodv
    nrk_task.o(.ARM.exidx) refers to nrk_task.o(i._Z18nrk_terminate_taskv) for i._Z18nrk_terminate_taskv
    nrk_task.o(.ARM.exidx) refers to nrk_task.o(i._Z29nrk_wait_until_next_n_periodst) for i._Z29nrk_wait_until_next_n_periodst
    nrk_task.o(.ARM.exidx) refers to nrk_task.o(i._Z14nrk_wait_tickst) for i._Z14nrk_wait_tickst
    nrk_task.o(.ARM.exidx) refers to nrk_task.o(i._Z20nrk_wait_until_tickst) for i._Z20nrk_wait_until_tickst
    nrk_task.o(.ARM.exidx) refers to nrk_task.o(i._Z19nrk_set_next_wakeup10nrk_time_t) for i._Z19nrk_set_next_wakeup10nrk_time_t
    nrk_task.o(.ARM.exidx) refers to nrk_task.o(i._Z17nrk_wait_until_nwv) for i._Z17nrk_wait_until_nwv
    nrk_task.o(.ARM.exidx) refers to nrk_task.o(i._Z8nrk_wait10nrk_time_t) for i._Z8nrk_wait10nrk_time_t
    nrk_task.o(.ARM.exidx) refers to nrk_task.o(i._Z14nrk_wait_until10nrk_time_t) for i._Z14nrk_wait_until10nrk_time_t
    nrk_task.o(.ARM.exidx) refers to nrk_task.o(i._Z11nrk_get_pidv) for i._Z11nrk_get_pidv
    nrk_time.o(i._Z12nrk_time_addP10nrk_time_tS_S_) refers to nrk_time.o(i._Z22nrk_time_compact_nanosP10nrk_time_t) for nrk_time_compact_nanos(nrk_time_t*)
    nrk_time.o(i._Z12nrk_time_getP10nrk_time_t) refers to nrk_timer.o(i._Z17_nrk_os_timer_getv) for _nrk_os_timer_get()
    nrk_time.o(i._Z12nrk_time_getP10nrk_time_t) refers to nrk.o(.data) for nrk_system_time
    nrk_time.o(i._Z12nrk_time_setjj) refers to nrk.o(.data) for nrk_system_time
    nrk_time.o(i._Z18_nrk_time_to_ticksP10nrk_time_t) refers to lludivv7m.o(.text) for __aeabi_uldivmod
    nrk_time.o(i._Z23_nrk_time_to_ticks_longP10nrk_time_t) refers to lludivv7m.o(.text) for __aeabi_uldivmod
    nrk_time.o(.ARM.exidx) refers to nrk_time.o(i._Z12nrk_time_getP10nrk_time_t) for i._Z12nrk_time_getP10nrk_time_t
    nrk_time.o(.ARM.exidx) refers to nrk_time.o(i._Z12nrk_time_subP10nrk_time_tS_S_) for i._Z12nrk_time_subP10nrk_time_tS_S_
    nrk_time.o(.ARM.exidx) refers to nrk_time.o(i._Z22nrk_time_compact_nanosP10nrk_time_t) for i._Z22nrk_time_compact_nanosP10nrk_time_t
    nrk_time.o(.ARM.exidx) refers to nrk_time.o(i._Z12nrk_time_addP10nrk_time_tS_S_) for i._Z12nrk_time_addP10nrk_time_tS_S_
    nrk_time.o(.ARM.exidx) refers to nrk_time.o(i._Z12nrk_time_setjj) for i._Z12nrk_time_setjj
    nrk_time.o(.ARM.exidx) refers to nrk_time.o(i._Z18_nrk_time_to_ticksP10nrk_time_t) for i._Z18_nrk_time_to_ticksP10nrk_time_t
    nrk_time.o(.ARM.exidx) refers to nrk_time.o(i._Z18_nrk_ticks_to_timej) for i._Z18_nrk_ticks_to_timej
    nrk_time.o(.ARM.exidx) refers to nrk_time.o(i._Z23_nrk_time_to_ticks_longP10nrk_time_t) for i._Z23_nrk_time_to_ticks_longP10nrk_time_t
    adc_driver.o(i._Z11get_adc_valv) refers to adc_driver.o(.data) for .data
    adc_driver.o(i._Z12set_adc_chanh) refers to adc_driver.o(.data) for .data
    adc_driver.o(i._Z15dev_manager_adchhPhh) refers to adc_driver.o(i._Z8init_adcv) for init_adc()
    adc_driver.o(i._Z15dev_manager_adchhPhh) refers to adc_driver.o(i._Z11get_adc_valv) for get_adc_val()
    adc_driver.o(i._Z15dev_manager_adchhPhh) refers to adc_driver.o(i._Z12set_adc_chanh) for set_adc_chan(unsigned char)
    adc_driver.o(i._Z15dev_manager_adchhPhh) refers to nrk_error.o(i._Z20nrk_kernel_error_addhh) for nrk_kernel_error_add(unsigned char, unsigned char)
    adc_driver.o(i._Z15dev_manager_adchhPhh) refers to adc_driver.o(.data) for .data
    adc_driver.o(i._Z8init_adcv) refers to nrk_timer.o(i._Z16nrk_spin_wait_usj) for nrk_spin_wait_us(unsigned)
    adc_driver.o(.ARM.exidx) refers to adc_driver.o(i._Z12set_adc_chanh) for i._Z12set_adc_chanh
    adc_driver.o(.ARM.exidx) refers to adc_driver.o(i._Z11get_adc_valv) for i._Z11get_adc_valv
    adc_driver.o(.ARM.exidx) refers to adc_driver.o(i._Z8init_adcv) for i._Z8init_adcv
    adc_driver.o(.ARM.exidx) refers to adc_driver.o(i._Z15dev_manager_adchhPhh) for i._Z15dev_manager_adchhPhh
    adc_driver.o(.ARM.exidx) refers to adc_driver.o(i._Z5delayv) for i._Z5delayv
    ff_basic_sensor.o(i._Z22dev_manager_ff_sensorshhPhh) refers to adc_driver.o(i._Z8init_adcv) for init_adc()
    ff_basic_sensor.o(i._Z22dev_manager_ff_sensorshhPhh) refers to adc_driver.o(i._Z11get_adc_valv) for get_adc_val()
    ff_basic_sensor.o(i._Z22dev_manager_ff_sensorshhPhh) refers to nrk_timer.o(i._Z16nrk_spin_wait_usj) for nrk_spin_wait_us(unsigned)
    ff_basic_sensor.o(i._Z22dev_manager_ff_sensorshhPhh) refers to nrk_error.o(i._Z14_nrk_errno_seth) for _nrk_errno_set(unsigned char)
    ff_basic_sensor.o(i._Z22dev_manager_ff_sensorshhPhh) refers to adc_driver.o(i._Z12set_adc_chanh) for set_adc_chan(unsigned char)
    ff_basic_sensor.o(i._Z22dev_manager_ff_sensorshhPhh) refers to nrk_error.o(i._Z20nrk_kernel_error_addhh) for nrk_kernel_error_add(unsigned char, unsigned char)
    ff_basic_sensor.o(i._Z22dev_manager_ff_sensorshhPhh) refers to ff_basic_sensor.o(.data) for .data
    ff_basic_sensor.o(.ARM.exidx) refers to ff_basic_sensor.o(i._Z22dev_manager_ff_sensorshhPhh) for i._Z22dev_manager_ff_sensorshhPhh
    mrf24j40.o(i._Z12mrf_set_addrt) refers to mrf24j40.o(i._Z15mrf_write_shorthh) for mrf_write_short(unsigned char, unsigned char)
    mrf24j40.o(i._Z12mrf_set_addrt) refers to mrf24j40.o(.data) for .data
    mrf24j40.o(i._Z13mrf_data_modev) refers to mrf24j40.o(i._Z14mrf_write_longth) for mrf_write_long(unsigned short, unsigned char)
    mrf24j40.o(i._Z13mrf_data_modev) refers to nrk_timer.o(i._Z16nrk_spin_wait_usj) for nrk_spin_wait_us(unsigned)
    mrf24j40.o(i._Z13mrf_data_modev) refers to mrf24j40.o(i._Z15mrf_write_shorthh) for mrf_write_short(unsigned char, unsigned char)
    mrf24j40.o(i._Z13mrf_read_longt) refers to nrk.o(i._Z15nrk_int_disablev) for nrk_int_disable()
    mrf24j40.o(i._Z13mrf_read_longt) refers to mrf24j40.o(i._Z10mrf_cs_seth) for mrf_cs_set(unsigned char)
    mrf24j40.o(i._Z13mrf_read_longt) refers to nrk_timer.o(i._Z16nrk_spin_wait_usj) for nrk_spin_wait_us(unsigned)
    mrf24j40.o(i._Z13mrf_read_longt) refers to mrf24j40.o(i._Z13mrf_spi_writet) for mrf_spi_write(unsigned short)
    mrf24j40.o(i._Z13mrf_read_longt) refers to nrk.o(i._Z14nrk_int_enablev) for nrk_int_enable()
    mrf24j40.o(i._Z13mrf_set_panidt) refers to mrf24j40.o(i._Z15mrf_write_shorthh) for mrf_write_short(unsigned char, unsigned char)
    mrf24j40.o(i._Z13mrf_set_panidt) refers to mrf24j40.o(.data) for .data
    mrf24j40.o(i._Z13mrf_test_modev) refers to mrf24j40.o(i._Z14mrf_write_longth) for mrf_write_long(unsigned short, unsigned char)
    mrf24j40.o(i._Z13mrf_test_modev) refers to nrk_timer.o(i._Z16nrk_spin_wait_usj) for nrk_spin_wait_us(unsigned)
    mrf24j40.o(i._Z13mrf_test_modev) refers to mrf24j40.o(i._Z15mrf_write_shorthh) for mrf_write_short(unsigned char, unsigned char)
    mrf24j40.o(i._Z14mrf_read_shorth) refers to nrk.o(i._Z15nrk_int_disablev) for nrk_int_disable()
    mrf24j40.o(i._Z14mrf_read_shorth) refers to mrf24j40.o(i._Z10mrf_cs_seth) for mrf_cs_set(unsigned char)
    mrf24j40.o(i._Z14mrf_read_shorth) refers to nrk_timer.o(i._Z16nrk_spin_wait_usj) for nrk_spin_wait_us(unsigned)
    mrf24j40.o(i._Z14mrf_read_shorth) refers to mrf24j40.o(i._Z13mrf_spi_writet) for mrf_spi_write(unsigned short)
    mrf24j40.o(i._Z14mrf_read_shorth) refers to nrk.o(i._Z14nrk_int_enablev) for nrk_int_enable()
    mrf24j40.o(i._Z14mrf_write_longth) refers to nrk.o(i._Z15nrk_int_disablev) for nrk_int_disable()
    mrf24j40.o(i._Z14mrf_write_longth) refers to mrf24j40.o(i._Z10mrf_cs_seth) for mrf_cs_set(unsigned char)
    mrf24j40.o(i._Z14mrf_write_longth) refers to nrk_timer.o(i._Z16nrk_spin_wait_usj) for nrk_spin_wait_us(unsigned)
    mrf24j40.o(i._Z14mrf_write_longth) refers to mrf24j40.o(i._Z13mrf_spi_writet) for mrf_spi_write(unsigned short)
    mrf24j40.o(i._Z14mrf_write_longth) refers to nrk.o(i._Z14nrk_int_enablev) for nrk_int_enable()
    mrf24j40.o(i._Z15mrf_write_shorthh) refers to nrk.o(i._Z15nrk_int_disablev) for nrk_int_disable()
    mrf24j40.o(i._Z15mrf_write_shorthh) refers to mrf24j40.o(i._Z10mrf_cs_seth) for mrf_cs_set(unsigned char)
    mrf24j40.o(i._Z15mrf_write_shorthh) refers to nrk_timer.o(i._Z16nrk_spin_wait_usj) for nrk_spin_wait_us(unsigned)
    mrf24j40.o(i._Z15mrf_write_shorthh) refers to mrf24j40.o(i._Z13mrf_spi_writet) for mrf_spi_write(unsigned short)
    mrf24j40.o(i._Z15mrf_write_shorthh) refers to nrk.o(i._Z14nrk_int_enablev) for nrk_int_enable()
    mrf24j40.o(i._Z8mrf_inith) refers to mrf24j40.o(i._Z13mrf_gpio_initv) for mrf_gpio_init()
    mrf24j40.o(i._Z8mrf_inith) refers to mrf24j40.o(i._Z12mrf_spi_inithhi) for mrf_spi_init(unsigned char, unsigned char, int)
    mrf24j40.o(i._Z8mrf_inith) refers to mrf24j40.o(i._Z9mrf_reseth) for mrf_reset(unsigned char)
    mrf24j40.o(i._Z8mrf_inith) refers to mrf24j40.o(i._Z15mrf_write_shorthh) for mrf_write_short(unsigned char, unsigned char)
    mrf24j40.o(i._Z8mrf_inith) refers to mrf24j40.o(i._Z16mrf_gpioint_initv) for mrf_gpioint_init()
    mrf24j40.o(i._Z8mrf_rssiv) refers to mrf24j40.o(i._Z15mrf_write_shorthh) for mrf_write_short(unsigned char, unsigned char)
    mrf24j40.o(i._Z8mrf_rssiv) refers to mrf24j40.o(i._Z14mrf_read_shorth) for mrf_read_short(unsigned char)
    mrf24j40.o(i._Z8mrf_rssiv) refers to mrf24j40.o(i._Z13mrf_read_longt) for mrf_read_long(unsigned short)
    mrf24j40.o(i._Z8mrf_wakev) refers to mrf24j40.o(i._Z15mrf_write_shorthh) for mrf_write_short(unsigned char, unsigned char)
    mrf24j40.o(i._Z8mrf_wakev) refers to nrk_timer.o(i._Z16nrk_spin_wait_usj) for nrk_spin_wait_us(unsigned)
    mrf24j40.o(i._Z9mrf_reseth) refers to mrf24j40.o(i._Z13mrf_reset_seth) for mrf_reset_set(unsigned char)
    mrf24j40.o(i._Z9mrf_reseth) refers to mrf24j40.o(i._Z15mrf_write_shorthh) for mrf_write_short(unsigned char, unsigned char)
    mrf24j40.o(i._Z9mrf_reseth) refers to mrf24j40.o(i._Z14mrf_write_longth) for mrf_write_long(unsigned short, unsigned char)
    mrf24j40.o(i._Z9mrf_reseth) refers to nrk_timer.o(i._Z16nrk_spin_wait_usj) for nrk_spin_wait_us(unsigned)
    mrf24j40.o(i._Z9mrf_sleepv) refers to mrf24j40.o(i._Z15mrf_write_shorthh) for mrf_write_short(unsigned char, unsigned char)
    mrf24j40.o(.ARM.exidx) refers to mrf24j40.o(i._Z12mrf_spi_inithhi) for i._Z12mrf_spi_inithhi
    mrf24j40.o(.ARM.exidx) refers to mrf24j40.o(i._Z13mrf_spi_writet) for i._Z13mrf_spi_writet
    mrf24j40.o(.ARM.exidx) refers to mrf24j40.o(i._Z16mrf_gpioint_initv) for i._Z16mrf_gpioint_initv
    mrf24j40.o(.ARM.exidx) refers to mrf24j40.o(i._Z13mrf_gpio_initv) for i._Z13mrf_gpio_initv
    mrf24j40.o(.ARM.exidx) refers to mrf24j40.o(i._Z10mrf_cs_seth) for i._Z10mrf_cs_seth
    mrf24j40.o(.ARM.exidx) refers to mrf24j40.o(i._Z13mrf_reset_seth) for i._Z13mrf_reset_seth
    mrf24j40.o(.ARM.exidx) refers to mrf24j40.o(i._Z15mrf_write_shorthh) for i._Z15mrf_write_shorthh
    mrf24j40.o(.ARM.exidx) refers to mrf24j40.o(i._Z14mrf_read_shorth) for i._Z14mrf_read_shorth
    mrf24j40.o(.ARM.exidx) refers to mrf24j40.o(i._Z14mrf_write_longth) for i._Z14mrf_write_longth
    mrf24j40.o(.ARM.exidx) refers to mrf24j40.o(i._Z13mrf_read_longt) for i._Z13mrf_read_longt
    mrf24j40.o(.ARM.exidx) refers to mrf24j40.o(i._Z9mrf_reseth) for i._Z9mrf_reseth
    mrf24j40.o(.ARM.exidx) refers to mrf24j40.o(i._Z8mrf_inith) for i._Z8mrf_inith
    mrf24j40.o(.ARM.exidx) refers to mrf24j40.o(i._Z12mrf_set_addrt) for i._Z12mrf_set_addrt
    mrf24j40.o(.ARM.exidx) refers to mrf24j40.o(i._Z13mrf_set_panidt) for i._Z13mrf_set_panidt
    mrf24j40.o(.ARM.exidx) refers to mrf24j40.o(i._Z13mrf_test_modev) for i._Z13mrf_test_modev
    mrf24j40.o(.ARM.exidx) refers to mrf24j40.o(i._Z13mrf_data_modev) for i._Z13mrf_data_modev
    mrf24j40.o(.ARM.exidx) refers to mrf24j40.o(i._Z8mrf_rssiv) for i._Z8mrf_rssiv
    mrf24j40.o(.ARM.exidx) refers to mrf24j40.o(i._Z9mrf_sleepv) for i._Z9mrf_sleepv
    mrf24j40.o(.ARM.exidx) refers to mrf24j40.o(i._Z8mrf_wakev) for i._Z8mrf_wakev
    basic_rf.o(i.EINT3_IRQHandler) refers to mrf24j40.o(i._Z14mrf_read_shorth) for mrf_read_short(unsigned char)
    basic_rf.o(i.EINT3_IRQHandler) refers to basic_rf.o(i._Z18rf_parse_rx_packetv) for rf_parse_rx_packet()
    basic_rf.o(i.EINT3_IRQHandler) refers to main.o(i._Z14mrfIsrCallbackv) for mrfIsrCallback()
    basic_rf.o(i.EINT3_IRQHandler) refers to mrf24j40.o(i._Z15mrf_write_shorthh) for mrf_write_short(unsigned char, unsigned char)
    basic_rf.o(i.EINT3_IRQHandler) refers to basic_rf.o(.data) for .data
    basic_rf.o(i.EINT3_IRQHandler) refers to basic_rf.o(.bss) for .bss
    basic_rf.o(i._Z11rf_power_upv) refers to mrf24j40.o(i._Z15mrf_write_shorthh) for mrf_write_short(unsigned char, unsigned char)
    basic_rf.o(i._Z11rf_power_upv) refers to nrk_timer.o(i._Z16nrk_spin_wait_usj) for nrk_spin_wait_us(unsigned)
    basic_rf.o(i._Z11rf_tx_powerh) refers to mrf24j40.o(i._Z14mrf_write_longth) for mrf_write_long(unsigned short, unsigned char)
    basic_rf.o(i._Z12rf_data_modev) refers to mrf24j40.o(i._Z14mrf_write_longth) for mrf_write_long(unsigned short, unsigned char)
    basic_rf.o(i._Z12rf_rx_packetv) refers to basic_rf.o(.data) for .data
    basic_rf.o(i._Z12rf_test_modev) refers to mrf24j40.o(i._Z14mrf_write_longth) for mrf_write_long(unsigned short, unsigned char)
    basic_rf.o(i._Z12rf_tx_packetP10RF_TX_INFO) refers to mrf24j40.o(i._Z14mrf_write_longth) for mrf_write_long(unsigned short, unsigned char)
    basic_rf.o(i._Z12rf_tx_packetP10RF_TX_INFO) refers to basic_rf.o(i._Z8rf_rx_onv) for rf_rx_on()
    basic_rf.o(i._Z12rf_tx_packetP10RF_TX_INFO) refers to nrk_timer.o(i._Z16nrk_spin_wait_usj) for nrk_spin_wait_us(unsigned)
    basic_rf.o(i._Z12rf_tx_packetP10RF_TX_INFO) refers to basic_rf.o(i._Z15rf_rx_check_ccav) for rf_rx_check_cca()
    basic_rf.o(i._Z12rf_tx_packetP10RF_TX_INFO) refers to mrf24j40.o(i._Z15mrf_write_shorthh) for mrf_write_short(unsigned char, unsigned char)
    basic_rf.o(i._Z12rf_tx_packetP10RF_TX_INFO) refers to basic_rf.o(i._Z7rf_initP10RF_RX_INFOhtt) for rf_init(RF_RX_INFO*, unsigned char, unsigned short, unsigned short)
    basic_rf.o(i._Z12rf_tx_packetP10RF_TX_INFO) refers to basic_rf.o(i._Z18rf_auto_ack_enablev) for rf_auto_ack_enable()
    basic_rf.o(i._Z12rf_tx_packetP10RF_TX_INFO) refers to basic_rf.o(i._Z19rf_auto_ack_disablev) for rf_auto_ack_disable()
    basic_rf.o(i._Z12rf_tx_packetP10RF_TX_INFO) refers to ulib.o(i._Z14nrk_led_togglei) for nrk_led_toggle(int)
    basic_rf.o(i._Z12rf_tx_packetP10RF_TX_INFO) refers to mrf24j40.o(i._Z14mrf_read_shorth) for mrf_read_short(unsigned char)
    basic_rf.o(i._Z12rf_tx_packetP10RF_TX_INFO) refers to basic_rf.o(.data) for .data
    basic_rf.o(i._Z12rf_tx_packetP10RF_TX_INFO) refers to basic_rf.o(.bss) for .bss
    basic_rf.o(i._Z12rf_tx_packetP10RF_TX_INFO) refers to bmac.o(.bss) for bmac_rfRxInfo
    basic_rf.o(i._Z13rf_carrier_onv) refers to mrf24j40.o(i._Z15mrf_write_shorthh) for mrf_write_short(unsigned char, unsigned char)
    basic_rf.o(i._Z13rf_carrier_onv) refers to nrk_timer.o(i._Z16nrk_spin_wait_usj) for nrk_spin_wait_us(unsigned)
    basic_rf.o(i._Z13rf_power_downv) refers to mrf24j40.o(i._Z15mrf_write_shorthh) for mrf_write_short(unsigned char, unsigned char)
    basic_rf.o(i._Z14rf_carrier_offv) refers to mrf24j40.o(i._Z15mrf_write_shorthh) for mrf_write_short(unsigned char, unsigned char)
    basic_rf.o(i._Z14rf_carrier_offv) refers to nrk_timer.o(i._Z16nrk_spin_wait_usj) for nrk_spin_wait_us(unsigned)
    basic_rf.o(i._Z14rf_rx_callbackP10RF_RX_INFO) refers to main.o(i._Z14mrfIsrCallbackv) for mrfIsrCallback()
    basic_rf.o(i._Z14rf_set_channelh) refers to mrf24j40.o(i._Z14mrf_write_longth) for mrf_write_long(unsigned short, unsigned char)
    basic_rf.o(i._Z14rf_set_channelh) refers to mrf24j40.o(i._Z15mrf_write_shorthh) for mrf_write_short(unsigned char, unsigned char)
    basic_rf.o(i._Z14rf_set_channelh) refers to nrk_timer.o(i._Z16nrk_spin_wait_usj) for nrk_spin_wait_us(unsigned)
    basic_rf.o(i._Z14rf_set_rx_modeh) refers to mrf24j40.o(i._Z14mrf_read_shorth) for mrf_read_short(unsigned char)
    basic_rf.o(i._Z14rf_set_rx_modeh) refers to mrf24j40.o(i._Z15mrf_write_shorthh) for mrf_write_short(unsigned char, unsigned char)
    basic_rf.o(i._Z15rf_rx_check_ccav) refers to mrf24j40.o(i._Z8mrf_rssiv) for mrf_rssi()
    basic_rf.o(i._Z15rf_rx_check_ccav) refers to basic_rf.o(.data) for .data
    basic_rf.o(i._Z15rf_set_cca_modeh) refers to mrf24j40.o(i._Z14mrf_read_shorth) for mrf_read_short(unsigned char)
    basic_rf.o(i._Z15rf_set_cca_modeh) refers to mrf24j40.o(i._Z15mrf_write_shorthh) for mrf_write_short(unsigned char, unsigned char)
    basic_rf.o(i._Z16rf_flush_rx_fifov) refers to mrf24j40.o(i._Z13mrf_read_longt) for mrf_read_long(unsigned short)
    basic_rf.o(i._Z16rf_polling_rx_onv) refers to mrf24j40.o(i._Z15mrf_write_shorthh) for mrf_write_short(unsigned char, unsigned char)
    basic_rf.o(i._Z16rf_polling_rx_onv) refers to mrf24j40.o(i._Z13mrf_read_longt) for mrf_read_long(unsigned short)
    basic_rf.o(i._Z16rf_polling_rx_onv) refers to basic_rf.o(.bss) for .bss
    basic_rf.o(i._Z16rf_polling_rx_onv) refers to basic_rf.o(.data) for .data
    basic_rf.o(i._Z17rf_rx_check_fifopv) refers to basic_rf.o(.data) for .data
    basic_rf.o(i._Z17rf_set_cca_thresha) refers to basic_rf.o(.data) for .data
    basic_rf.o(i._Z18rf_auto_ack_enablev) refers to mrf24j40.o(i._Z14mrf_read_shorth) for mrf_read_short(unsigned char)
    basic_rf.o(i._Z18rf_auto_ack_enablev) refers to mrf24j40.o(i._Z15mrf_write_shorthh) for mrf_write_short(unsigned char, unsigned char)
    basic_rf.o(i._Z18rf_auto_ack_enablev) refers to basic_rf.o(.data) for .data
    basic_rf.o(i._Z18rf_parse_rx_packetv) refers to basic_rf.o(i._Z9rf_rx_offv) for rf_rx_off()
    basic_rf.o(i._Z18rf_parse_rx_packetv) refers to mrf24j40.o(i._Z13mrf_read_longt) for mrf_read_long(unsigned short)
    basic_rf.o(i._Z18rf_parse_rx_packetv) refers to basic_rf.o(i._Z8rf_rx_onv) for rf_rx_on()
    basic_rf.o(i._Z18rf_parse_rx_packetv) refers to basic_rf.o(.bss) for .bss
    basic_rf.o(i._Z18rf_parse_rx_packetv) refers to basic_rf.o(.data) for .data
    basic_rf.o(i._Z19rf_auto_ack_disablev) refers to mrf24j40.o(i._Z14mrf_read_shorth) for mrf_read_short(unsigned char)
    basic_rf.o(i._Z19rf_auto_ack_disablev) refers to mrf24j40.o(i._Z15mrf_write_shorthh) for mrf_write_short(unsigned char, unsigned char)
    basic_rf.o(i._Z19rf_auto_ack_disablev) refers to basic_rf.o(.data) for .data
    basic_rf.o(i._Z20rf_polling_rx_packetv) refers to basic_rf.o(i._Z12rf_rx_packetv) for rf_rx_packet()
    basic_rf.o(i._Z21rf_addr_decode_enablev) refers to mrf24j40.o(i._Z14mrf_read_shorth) for mrf_read_short(unsigned char)
    basic_rf.o(i._Z21rf_addr_decode_enablev) refers to mrf24j40.o(i._Z15mrf_write_shorthh) for mrf_write_short(unsigned char, unsigned char)
    basic_rf.o(i._Z22rf_addr_decode_disablev) refers to mrf24j40.o(i._Z14mrf_read_shorth) for mrf_read_short(unsigned char)
    basic_rf.o(i._Z22rf_addr_decode_disablev) refers to mrf24j40.o(i._Z15mrf_write_shorthh) for mrf_write_short(unsigned char, unsigned char)
    basic_rf.o(i._Z25rf_addr_decode_set_my_mact) refers to mrf24j40.o(i._Z15mrf_write_shorthh) for mrf_write_short(unsigned char, unsigned char)
    basic_rf.o(i._Z25rf_addr_decode_set_my_mact) refers to basic_rf.o(.bss) for .bss
    basic_rf.o(i._Z7rf_initP10RF_RX_INFOhtt) refers to mrf24j40.o(i._Z8mrf_inith) for mrf_init(unsigned char)
    basic_rf.o(i._Z7rf_initP10RF_RX_INFOhtt) refers to mrf24j40.o(i._Z12mrf_set_addrt) for mrf_set_addr(unsigned short)
    basic_rf.o(i._Z7rf_initP10RF_RX_INFOhtt) refers to mrf24j40.o(i._Z13mrf_set_panidt) for mrf_set_panid(unsigned short)
    basic_rf.o(i._Z7rf_initP10RF_RX_INFOhtt) refers to basic_rf.o(i._Z14rf_set_rx_modeh) for rf_set_rx_mode(unsigned char)
    basic_rf.o(i._Z7rf_initP10RF_RX_INFOhtt) refers to mrf24j40.o(i._Z13mrf_read_longt) for mrf_read_long(unsigned short)
    basic_rf.o(i._Z7rf_initP10RF_RX_INFOhtt) refers to mrf24j40.o(i._Z14mrf_read_shorth) for mrf_read_short(unsigned char)
    basic_rf.o(i._Z7rf_initP10RF_RX_INFOhtt) refers to basic_rf.o(.bss) for .bss
    basic_rf.o(i._Z7rf_initP10RF_RX_INFOhtt) refers to basic_rf.o(.data) for .data
    basic_rf.o(i._Z8rf_rx_onv) refers to mrf24j40.o(i._Z15mrf_write_shorthh) for mrf_write_short(unsigned char, unsigned char)
    basic_rf.o(i._Z8rf_rx_onv) refers to basic_rf.o(.bss) for .bss
    basic_rf.o(i._Z8rf_rx_onv) refers to basic_rf.o(.data) for .data
    basic_rf.o(i._Z9rf_rx_offv) refers to mrf24j40.o(i._Z15mrf_write_shorthh) for mrf_write_short(unsigned char, unsigned char)
    basic_rf.o(i._Z9rf_rx_offv) refers to basic_rf.o(.bss) for .bss
    basic_rf.o(i._Z9rf_rx_offv) refers to basic_rf.o(.data) for .data
    basic_rf.o(i._Z9rf_set_rxP10RF_RX_INFOh) refers to mrf24j40.o(i._Z13mrf_read_longt) for mrf_read_long(unsigned short)
    basic_rf.o(i._Z9rf_set_rxP10RF_RX_INFOh) refers to basic_rf.o(i._Z14rf_set_channelh) for rf_set_channel(unsigned char)
    basic_rf.o(i._Z9rf_set_rxP10RF_RX_INFOh) refers to mrf24j40.o(i._Z15mrf_write_shorthh) for mrf_write_short(unsigned char, unsigned char)
    basic_rf.o(i._Z9rf_set_rxP10RF_RX_INFOh) refers to nrk_timer.o(i._Z16nrk_spin_wait_usj) for nrk_spin_wait_us(unsigned)
    basic_rf.o(i._Z9rf_set_rxP10RF_RX_INFOh) refers to basic_rf.o(.bss) for .bss
    basic_rf.o(.ARM.exidx) refers to basic_rf.o(i._Z14rf_rx_callbackP10RF_RX_INFO) for i._Z14rf_rx_callbackP10RF_RX_INFO
    basic_rf.o(.ARM.exidx) refers to basic_rf.o(i._Z13rf_power_downv) for i._Z13rf_power_downv
    basic_rf.o(.ARM.exidx) refers to basic_rf.o(i._Z11rf_power_upv) for i._Z11rf_power_upv
    basic_rf.o(.ARM.exidx) refers to basic_rf.o(i._Z11rf_tx_powerh) for i._Z11rf_tx_powerh
    basic_rf.o(.ARM.exidx) refers to basic_rf.o(i._Z27rf_security_last_pkt_statusv) for i._Z27rf_security_last_pkt_statusv
    basic_rf.o(.ARM.exidx) refers to basic_rf.o(i._Z27rf_security_set_ctr_counterPh) for i._Z27rf_security_set_ctr_counterPh
    basic_rf.o(.ARM.exidx) refers to basic_rf.o(i._Z19rf_security_set_keyPh) for i._Z19rf_security_set_keyPh
    basic_rf.o(.ARM.exidx) refers to basic_rf.o(i._Z18rf_security_enablev) for i._Z18rf_security_enablev
    basic_rf.o(.ARM.exidx) refers to basic_rf.o(i._Z19rf_security_disablev) for i._Z19rf_security_disablev
    basic_rf.o(.ARM.exidx) refers to basic_rf.o(i._Z14rf_set_channelh) for i._Z14rf_set_channelh
    basic_rf.o(.ARM.exidx) refers to basic_rf.o(i._Z21rf_addr_decode_enablev) for i._Z21rf_addr_decode_enablev
    basic_rf.o(.ARM.exidx) refers to basic_rf.o(i._Z22rf_addr_decode_disablev) for i._Z22rf_addr_decode_disablev
    basic_rf.o(.ARM.exidx) refers to basic_rf.o(i._Z18rf_auto_ack_enablev) for i._Z18rf_auto_ack_enablev
    basic_rf.o(.ARM.exidx) refers to basic_rf.o(i._Z19rf_auto_ack_disablev) for i._Z19rf_auto_ack_disablev
    basic_rf.o(.ARM.exidx) refers to basic_rf.o(i._Z25rf_addr_decode_set_my_mact) for i._Z25rf_addr_decode_set_my_mact
    basic_rf.o(.ARM.exidx) refers to basic_rf.o(i._Z14rf_set_rx_modeh) for i._Z14rf_set_rx_modeh
    basic_rf.o(.ARM.exidx) refers to basic_rf.o(i._Z16rf_flush_rx_fifov) for i._Z16rf_flush_rx_fifov
    basic_rf.o(.ARM.exidx) refers to basic_rf.o(i._Z9rf_set_rxP10RF_RX_INFOh) for i._Z9rf_set_rxP10RF_RX_INFOh
    basic_rf.o(.ARM.exidx) refers to basic_rf.o(i._Z7rf_initP10RF_RX_INFOhtt) for i._Z7rf_initP10RF_RX_INFOhtt
    basic_rf.o(.ARM.exidx) refers to basic_rf.o(i._Z8rf_rx_onv) for i._Z8rf_rx_onv
    basic_rf.o(.ARM.exidx) refers to basic_rf.o(i._Z16rf_polling_rx_onv) for i._Z16rf_polling_rx_onv
    basic_rf.o(.ARM.exidx) refers to basic_rf.o(i._Z9rf_rx_offv) for i._Z9rf_rx_offv
    basic_rf.o(.ARM.exidx) refers to basic_rf.o(i._Z12rf_test_modev) for i._Z12rf_test_modev
    basic_rf.o(.ARM.exidx) refers to basic_rf.o(i._Z12rf_data_modev) for i._Z12rf_data_modev
    basic_rf.o(.ARM.exidx) refers to basic_rf.o(i._Z16rf_rx_set_serialv) for i._Z16rf_rx_set_serialv
    basic_rf.o(.ARM.exidx) refers to basic_rf.o(i._Z16rf_tx_set_serialv) for i._Z16rf_tx_set_serialv
    basic_rf.o(.ARM.exidx) refers to basic_rf.o(i._Z22rf_set_preamble_lengthh) for i._Z22rf_set_preamble_lengthh
    basic_rf.o(.ARM.exidx) refers to basic_rf.o(i._Z13rf_carrier_onv) for i._Z13rf_carrier_onv
    basic_rf.o(.ARM.exidx) refers to basic_rf.o(i._Z14rf_carrier_offv) for i._Z14rf_carrier_offv
    basic_rf.o(.ARM.exidx) refers to basic_rf.o(i._Z17rf_rx_check_fifopv) for i._Z17rf_rx_check_fifopv
    basic_rf.o(.ARM.exidx) refers to basic_rf.o(i._Z17rf_set_cca_thresha) for i._Z17rf_set_cca_thresha
    basic_rf.o(.ARM.exidx) refers to basic_rf.o(i._Z15rf_set_cca_modeh) for i._Z15rf_set_cca_modeh
    basic_rf.o(.ARM.exidx) refers to basic_rf.o(i._Z15rf_rx_check_ccav) for i._Z15rf_rx_check_ccav
    basic_rf.o(.ARM.exidx) refers to basic_rf.o(i._Z12rf_rx_packetv) for i._Z12rf_rx_packetv
    basic_rf.o(.ARM.exidx) refers to basic_rf.o(i._Z20rf_polling_rx_packetv) for i._Z20rf_polling_rx_packetv
    basic_rf.o(.ARM.exidx) refers to basic_rf.o(i._Z17rf_tx_tdma_packetP10RF_TX_INFOtt) for i._Z17rf_tx_tdma_packetP10RF_TX_INFOtt
    basic_rf.o(.ARM.exidx) refers to basic_rf.o(i._Z12rf_tx_packetP10RF_TX_INFO) for i._Z12rf_tx_packetP10RF_TX_INFO
    basic_rf.o(.ARM.exidx) refers to basic_rf.o(i._Z18rf_parse_rx_packetv) for i._Z18rf_parse_rx_packetv
    basic_rf.o(.ARM.exidx) refers to basic_rf.o(i.EINT3_IRQHandler) for i.EINT3_IRQHandler
    bmac.o(i._Z11bmac_enablev) refers to basic_rf.o(i._Z11rf_power_upv) for rf_power_up()
    bmac.o(i._Z11bmac_enablev) refers to nrk_events.o(i._Z16nrk_event_signala) for nrk_event_signal(signed char)
    bmac.o(i._Z11bmac_enablev) refers to bmac.o(.data) for .data
    bmac.o(i._Z11bmac_tx_pktPch) refers to nrk_events.o(i._Z19nrk_signal_registera) for nrk_signal_register(signed char)
    bmac.o(i._Z11bmac_tx_pktPch) refers to nrk_events.o(i._Z14nrk_event_waitj) for nrk_event_wait(unsigned)
    bmac.o(i._Z11bmac_tx_pktPch) refers to bmac.o(.data) for .data
    bmac.o(i._Z11bmac_tx_pktPch) refers to bmac.o(.bss) for .bss
    bmac.o(i._Z12bmac_disablev) refers to basic_rf.o(i._Z13rf_power_downv) for rf_power_down()
    bmac.o(i._Z12bmac_disablev) refers to bmac.o(.data) for .data
    bmac.o(i._Z12bmac_nw_taskv) refers to nrk_task.o(i._Z26nrk_wait_until_next_periodv) for nrk_wait_until_next_period()
    bmac.o(i._Z12bmac_nw_taskv) refers to nrk_events.o(i._Z16nrk_event_signala) for nrk_event_signal(signed char)
    bmac.o(i._Z12bmac_nw_taskv) refers to bmac.o(i._Z19_bmac_channel_checkv) for _bmac_channel_check()
    bmac.o(i._Z12bmac_nw_taskv) refers to bmac.o(i._Z8_bmac_rxv) for _bmac_rx()
    bmac.o(i._Z12bmac_nw_taskv) refers to basic_rf.o(i._Z9rf_rx_offv) for rf_rx_off()
    bmac.o(i._Z12bmac_nw_taskv) refers to bmac.o(i._Z8_bmac_txv) for _bmac_tx()
    bmac.o(i._Z12bmac_nw_taskv) refers to nrk_task.o(i._Z8nrk_wait10nrk_time_t) for nrk_wait(nrk_time_t)
    bmac.o(i._Z12bmac_nw_taskv) refers to nrk_events.o(i._Z19nrk_signal_registera) for nrk_signal_register(signed char)
    bmac.o(i._Z12bmac_nw_taskv) refers to nrk_events.o(i._Z14nrk_event_waitj) for nrk_event_wait(unsigned)
    bmac.o(i._Z12bmac_nw_taskv) refers to bmac.o(.data) for .data
    bmac.o(i._Z12bmac_startedv) refers to bmac.o(.data) for .data
    bmac.o(i._Z15bmac_rx_pkt_getPhS_) refers to bmac.o(.data) for .data
    bmac.o(i._Z15bmac_rx_pkt_getPhS_) refers to bmac.o(.bss) for .bss
    bmac.o(i._Z16bmac_set_channelh) refers to basic_rf.o(i._Z7rf_initP10RF_RX_INFOhtt) for rf_init(RF_RX_INFO*, unsigned char, unsigned short, unsigned short)
    bmac.o(i._Z16bmac_set_channelh) refers to bmac.o(.data) for .data
    bmac.o(i._Z16bmac_set_channelh) refers to bmac.o(.bss) for .bss
    bmac.o(i._Z16bmac_task_configv) refers to nrk_cpu.o(i._Z27nrk_task_set_entry_functionP9task_typePFvvE) for nrk_task_set_entry_function(task_type*, void(*)())
    bmac.o(i._Z16bmac_task_configv) refers to nrk_cpu.o(i._Z16nrk_task_set_stkP9task_typePjt) for nrk_task_set_stk(task_type*, unsigned*, unsigned short)
    bmac.o(i._Z16bmac_task_configv) refers to nrk_task.o(i._Z17nrk_activate_taskP9task_type) for nrk_activate_task(task_type*)
    bmac.o(i._Z16bmac_task_configv) refers to bmac.o(i._Z12bmac_nw_taskv) for bmac_nw_task()
    bmac.o(i._Z16bmac_task_configv) refers to bmac.o(.bss) for .bss
    bmac.o(i._Z17bmac_rx_pkt_readyv) refers to bmac.o(.data) for .data
    bmac.o(i._Z17bmac_set_rf_powerh) refers to basic_rf.o(i._Z11rf_tx_powerh) for rf_tx_power(unsigned char)
    bmac.o(i._Z19_bmac_channel_checkv) refers to basic_rf.o(i._Z16rf_polling_rx_onv) for rf_polling_rx_on()
    bmac.o(i._Z19_bmac_channel_checkv) refers to nrk_timer.o(i._Z16nrk_spin_wait_usj) for nrk_spin_wait_us(unsigned)
    bmac.o(i._Z19_bmac_channel_checkv) refers to basic_rf.o(i._Z15rf_rx_check_ccav) for rf_rx_check_cca()
    bmac.o(i._Z19_bmac_channel_checkv) refers to basic_rf.o(i._Z9rf_rx_offv) for rf_rx_off()
    bmac.o(i._Z19bmac_rx_pkt_releasev) refers to bmac.o(.data) for .data
    bmac.o(i._Z19bmac_set_cca_activeh) refers to bmac.o(.data) for .data
    bmac.o(i._Z19bmac_set_cca_thresha) refers to basic_rf.o(i._Z17rf_set_cca_thresha) for rf_set_cca_thresh(signed char)
    bmac.o(i._Z20bmac_auto_ack_enablev) refers to basic_rf.o(i._Z18rf_auto_ack_enablev) for rf_auto_ack_enable()
    bmac.o(i._Z21bmac_auto_ack_disablev) refers to basic_rf.o(i._Z19rf_auto_ack_disablev) for rf_auto_ack_disable()
    bmac.o(i._Z22bmac_encryption_enablev) refers to basic_rf.o(i._Z18rf_security_enablev) for rf_security_enable()
    bmac.o(i._Z22bmac_get_rx_pkt_signalv) refers to nrk_events.o(i._Z19nrk_signal_registera) for nrk_signal_register(signed char)
    bmac.o(i._Z22bmac_get_rx_pkt_signalv) refers to bmac.o(.data) for .data
    bmac.o(i._Z22bmac_rx_pkt_set_bufferPch) refers to bmac.o(.bss) for .bss
    bmac.o(i._Z22bmac_rx_pkt_set_bufferPch) refers to bmac.o(.data) for .data
    bmac.o(i._Z22bmac_set_rx_check_rate10nrk_time_t) refers to bmac.o(.data) for .data
    bmac.o(i._Z22bmac_wait_until_rx_pktv) refers to nrk_events.o(i._Z19nrk_signal_registera) for nrk_signal_register(signed char)
    bmac.o(i._Z22bmac_wait_until_rx_pktv) refers to nrk_events.o(i._Z14nrk_event_waitj) for nrk_event_wait(unsigned)
    bmac.o(i._Z22bmac_wait_until_rx_pktv) refers to bmac.o(.data) for .data
    bmac.o(i._Z23bmac_addr_decode_enablev) refers to basic_rf.o(i._Z21rf_addr_decode_enablev) for rf_addr_decode_enable()
    bmac.o(i._Z23bmac_encryption_disablev) refers to basic_rf.o(i._Z19rf_security_disablev) for rf_security_disable()
    bmac.o(i._Z23bmac_encryption_set_keyPhh) refers to basic_rf.o(i._Z19rf_security_set_keyPh) for rf_security_set_key(unsigned char*)
    bmac.o(i._Z23bmac_get_tx_done_signalv) refers to nrk_events.o(i._Z19nrk_signal_registera) for nrk_signal_register(signed char)
    bmac.o(i._Z23bmac_get_tx_done_signalv) refers to bmac.o(.data) for .data
    bmac.o(i._Z23bmac_tx_pkt_nonblockingPch) refers to bmac.o(.data) for .data
    bmac.o(i._Z23bmac_tx_pkt_nonblockingPch) refers to bmac.o(.bss) for .bss
    bmac.o(i._Z24bmac_addr_decode_disablev) refers to basic_rf.o(i._Z22rf_addr_decode_disablev) for rf_addr_decode_disable()
    bmac.o(i._Z24bmac_rx_pkt_is_encryptedv) refers to basic_rf.o(i._Z27rf_security_last_pkt_statusv) for rf_security_last_pkt_status()
    bmac.o(i._Z25bmac_addr_decode_dest_mact) refers to bmac.o(.bss) for .bss
    bmac.o(i._Z25bmac_rx_failure_count_getv) refers to bmac.o(.data) for .data
    bmac.o(i._Z27bmac_addr_decode_set_my_mact) refers to basic_rf.o(i._Z25rf_addr_decode_set_my_mact) for rf_addr_decode_set_my_mac(unsigned short)
    bmac.o(i._Z27bmac_rx_failure_count_resetv) refers to bmac.o(.data) for .data
    bmac.o(i._Z31bmac_encryption_set_ctr_counterPhh) refers to basic_rf.o(i._Z27rf_security_set_ctr_counterPh) for rf_security_set_ctr_counter(unsigned char*)
    bmac.o(i._Z8_bmac_rxv) refers to basic_rf.o(i._Z8rf_rx_onv) for rf_rx_on()
    bmac.o(i._Z8_bmac_rxv) refers to nrk_task.o(i._Z8nrk_wait10nrk_time_t) for nrk_wait(nrk_time_t)
    bmac.o(i._Z8_bmac_rxv) refers to basic_rf.o(i._Z9rf_rx_offv) for rf_rx_off()
    bmac.o(i._Z8_bmac_rxv) refers to basic_rf.o(i._Z15rf_rx_check_ccav) for rf_rx_check_cca()
    bmac.o(i._Z8_bmac_rxv) refers to basic_rf.o(i._Z12rf_rx_packetv) for rf_rx_packet()
    bmac.o(i._Z8_bmac_rxv) refers to bmac.o(.data) for .data
    bmac.o(i._Z8_bmac_txv) refers to nrk_time.o(i._Z18_nrk_time_to_ticksP10nrk_time_t) for _nrk_time_to_ticks(nrk_time_t*)
    bmac.o(i._Z8_bmac_txv) refers to rand.o(.emb_text) for rand
    bmac.o(i._Z8_bmac_txv) refers to nrk_task.o(i._Z20nrk_wait_until_tickst) for nrk_wait_until_ticks(unsigned short)
    bmac.o(i._Z8_bmac_txv) refers to bmac.o(i._Z19_bmac_channel_checkv) for _bmac_channel_check()
    bmac.o(i._Z8_bmac_txv) refers to basic_rf.o(i._Z9rf_rx_offv) for rf_rx_off()
    bmac.o(i._Z8_bmac_txv) refers to bmac.o(i._Z6_b_powh) for _b_pow(unsigned char)
    bmac.o(i._Z8_bmac_txv) refers to nrk_task.o(i._Z29nrk_wait_until_next_n_periodst) for nrk_wait_until_next_n_periods(unsigned short)
    bmac.o(i._Z8_bmac_txv) refers to basic_rf.o(i._Z12rf_test_modev) for rf_test_mode()
    bmac.o(i._Z8_bmac_txv) refers to basic_rf.o(i._Z13rf_carrier_onv) for rf_carrier_on()
    bmac.o(i._Z8_bmac_txv) refers to nrk_task.o(i._Z8nrk_wait10nrk_time_t) for nrk_wait(nrk_time_t)
    bmac.o(i._Z8_bmac_txv) refers to basic_rf.o(i._Z14rf_carrier_offv) for rf_carrier_off()
    bmac.o(i._Z8_bmac_txv) refers to basic_rf.o(i._Z12rf_data_modev) for rf_data_mode()
    bmac.o(i._Z8_bmac_txv) refers to basic_rf.o(i._Z12rf_tx_packetP10RF_TX_INFO) for rf_tx_packet(RF_TX_INFO*)
    bmac.o(i._Z8_bmac_txv) refers to nrk_events.o(i._Z16nrk_event_signala) for nrk_event_signal(signed char)
    bmac.o(i._Z8_bmac_txv) refers to bmac.o(.data) for .data
    bmac.o(i._Z8_bmac_txv) refers to bmac.o(.bss) for .bss
    bmac.o(i._Z9bmac_inith) refers to nrk_events.o(i._Z17nrk_signal_createv) for nrk_signal_create()
    bmac.o(i._Z9bmac_inith) refers to basic_rf.o(i._Z7rf_initP10RF_RX_INFOhtt) for rf_init(RF_RX_INFO*, unsigned char, unsigned short, unsigned short)
    bmac.o(i._Z9bmac_inith) refers to basic_rf.o(i._Z17rf_set_cca_thresha) for rf_set_cca_thresh(signed char)
    bmac.o(i._Z9bmac_inith) refers to basic_rf.o(i._Z22rf_addr_decode_disablev) for rf_addr_decode_disable()
    bmac.o(i._Z9bmac_inith) refers to bmac.o(.data) for .data
    bmac.o(i._Z9bmac_inith) refers to bmac.o(.bss) for .bss
    bmac.o(.ARM.exidx) refers to bmac.o(i._Z31bmac_encryption_set_ctr_counterPhh) for i._Z31bmac_encryption_set_ctr_counterPhh
    bmac.o(.ARM.exidx) refers to bmac.o(i._Z19bmac_tx_reserve_setP10nrk_time_tt) for i._Z19bmac_tx_reserve_setP10nrk_time_tt
    bmac.o(.ARM.exidx) refers to bmac.o(i._Z19bmac_tx_reserve_getv) for i._Z19bmac_tx_reserve_getv
    bmac.o(.ARM.exidx) refers to bmac.o(i._Z21bmac_auto_ack_disablev) for i._Z21bmac_auto_ack_disablev
    bmac.o(.ARM.exidx) refers to bmac.o(i._Z20bmac_auto_ack_enablev) for i._Z20bmac_auto_ack_enablev
    bmac.o(.ARM.exidx) refers to bmac.o(i._Z24bmac_addr_decode_disablev) for i._Z24bmac_addr_decode_disablev
    bmac.o(.ARM.exidx) refers to bmac.o(i._Z23bmac_addr_decode_enablev) for i._Z23bmac_addr_decode_enablev
    bmac.o(.ARM.exidx) refers to bmac.o(i._Z27bmac_addr_decode_set_my_mact) for i._Z27bmac_addr_decode_set_my_mact
    bmac.o(.ARM.exidx) refers to bmac.o(i._Z25bmac_addr_decode_dest_mact) for i._Z25bmac_addr_decode_dest_mact
    bmac.o(.ARM.exidx) refers to bmac.o(i._Z24bmac_rx_pkt_is_encryptedv) for i._Z24bmac_rx_pkt_is_encryptedv
    bmac.o(.ARM.exidx) refers to bmac.o(i._Z23bmac_encryption_set_keyPhh) for i._Z23bmac_encryption_set_keyPhh
    bmac.o(.ARM.exidx) refers to bmac.o(i._Z22bmac_encryption_enablev) for i._Z22bmac_encryption_enablev
    bmac.o(.ARM.exidx) refers to bmac.o(i._Z23bmac_encryption_disablev) for i._Z23bmac_encryption_disablev
    bmac.o(.ARM.exidx) refers to bmac.o(i._Z17bmac_set_rf_powerh) for i._Z17bmac_set_rf_powerh
    bmac.o(.ARM.exidx) refers to bmac.o(i._Z19bmac_set_cca_activeh) for i._Z19bmac_set_cca_activeh
    bmac.o(.ARM.exidx) refers to bmac.o(i._Z19bmac_set_cca_thresha) for i._Z19bmac_set_cca_thresha
    bmac.o(.ARM.exidx) refers to bmac.o(i._Z16bmac_set_channelh) for i._Z16bmac_set_channelh
    bmac.o(.ARM.exidx) refers to bmac.o(i._Z22bmac_wait_until_rx_pktv) for i._Z22bmac_wait_until_rx_pktv
    bmac.o(.ARM.exidx) refers to bmac.o(i._Z22bmac_rx_pkt_set_bufferPch) for i._Z22bmac_rx_pkt_set_bufferPch
    bmac.o(.ARM.exidx) refers to bmac.o(i._Z9bmac_inith) for i._Z9bmac_inith
    bmac.o(.ARM.exidx) refers to bmac.o(i._Z23bmac_tx_pkt_nonblockingPch) for i._Z23bmac_tx_pkt_nonblockingPch
    bmac.o(.ARM.exidx) refers to bmac.o(i._Z22bmac_get_rx_pkt_signalv) for i._Z22bmac_get_rx_pkt_signalv
    bmac.o(.ARM.exidx) refers to bmac.o(i._Z23bmac_get_tx_done_signalv) for i._Z23bmac_get_tx_done_signalv
    bmac.o(.ARM.exidx) refers to bmac.o(i._Z11bmac_tx_pktPch) for i._Z11bmac_tx_pktPch
    bmac.o(.ARM.exidx) refers to bmac.o(i._Z15bmac_rx_pkt_getPhS_) for i._Z15bmac_rx_pkt_getPhS_
    bmac.o(.ARM.exidx) refers to bmac.o(i._Z17bmac_rx_pkt_readyv) for i._Z17bmac_rx_pkt_readyv
    bmac.o(.ARM.exidx) refers to bmac.o(i._Z19bmac_rx_pkt_releasev) for i._Z19bmac_rx_pkt_releasev
    bmac.o(.ARM.exidx) refers to bmac.o(i._Z12bmac_disablev) for i._Z12bmac_disablev
    bmac.o(.ARM.exidx) refers to bmac.o(i._Z11bmac_enablev) for i._Z11bmac_enablev
    bmac.o(.ARM.exidx) refers to bmac.o(i._Z22bmac_set_rx_check_rate10nrk_time_t) for i._Z22bmac_set_rx_check_rate10nrk_time_t
    bmac.o(.ARM.exidx) refers to bmac.o(i._Z12bmac_startedv) for i._Z12bmac_startedv
    bmac.o(.ARM.exidx) refers to bmac.o(i._Z19_bmac_channel_checkv) for i._Z19_bmac_channel_checkv
    bmac.o(.ARM.exidx) refers to bmac.o(i._Z25bmac_rx_failure_count_getv) for i._Z25bmac_rx_failure_count_getv
    bmac.o(.ARM.exidx) refers to bmac.o(i._Z27bmac_rx_failure_count_resetv) for i._Z27bmac_rx_failure_count_resetv
    bmac.o(.ARM.exidx) refers to bmac.o(i._Z6_b_powh) for i._Z6_b_powh
    bmac.o(.ARM.exidx) refers to bmac.o(i._Z8_bmac_txv) for i._Z8_bmac_txv
    bmac.o(.ARM.exidx) refers to bmac.o(i._Z8_bmac_rxv) for i._Z8_bmac_rxv
    bmac.o(.ARM.exidx) refers to bmac.o(i._Z12bmac_nw_taskv) for i._Z12bmac_nw_taskv
    bmac.o(.ARM.exidx) refers to bmac.o(i._Z16bmac_task_configv) for i._Z16bmac_task_configv
    main.o(i._Z12all_LEDs_clrv) refers to ulib.o(i._Z11nrk_led_clri) for nrk_led_clr(int)
    main.o(i._Z12all_LEDs_setv) refers to ulib.o(i._Z11nrk_led_seti) for nrk_led_set(int)
    main.o(i._Z14mrfIsrCallbackv) refers to main.o(.data) for .data
    main.o(i._Z18nrk_create_tasksetv) refers to nrk_cpu.o(i._Z16nrk_task_set_stkP9task_typePjt) for nrk_task_set_stk(task_type*, unsigned*, unsigned short)
    main.o(i._Z18nrk_create_tasksetv) refers to nrk_task.o(i._Z17nrk_activate_taskP9task_type) for nrk_activate_task(task_type*)
    main.o(i._Z18nrk_create_tasksetv) refers to main.o(i._Z7rx_taskv) for rx_task()
    main.o(i._Z18nrk_create_tasksetv) refers to main.o(.bss) for .bss
    main.o(i._Z18nrk_create_tasksetv) refers to main.o(i._Z7tx_taskv) for tx_task()
    main.o(i._Z7rx_taskv) refers to _printf_percent.o(.ARM.Collect$$_printf_percent$$00000000) for _printf_percent
    main.o(i._Z7rx_taskv) refers to _printf_d.o(.ARM.Collect$$_printf_percent$$00000009) for _printf_d
    main.o(i._Z7rx_taskv) refers to _printf_dec.o(.text) for _printf_int_dec
    main.o(i._Z7rx_taskv) refers to _printf_c.o(.ARM.Collect$$_printf_percent$$00000013) for _printf_c
    main.o(i._Z7rx_taskv) refers to _printf_str.o(.text) for _printf_str
    main.o(i._Z7rx_taskv) refers to bmac.o(i._Z9bmac_inith) for bmac_init(unsigned char)
    main.o(i._Z7rx_taskv) refers to bmac.o(i._Z21bmac_auto_ack_disablev) for bmac_auto_ack_disable()
    main.o(i._Z7rx_taskv) refers to bmac.o(i._Z22bmac_set_rx_check_rate10nrk_time_t) for bmac_set_rx_check_rate(nrk_time_t)
    main.o(i._Z7rx_taskv) refers to bmac.o(i._Z19bmac_set_cca_thresha) for bmac_set_cca_thresh(signed char)
    main.o(i._Z7rx_taskv) refers to bmac.o(i._Z22bmac_rx_pkt_set_bufferPch) for bmac_rx_pkt_set_buffer(char*, unsigned char)
    main.o(i._Z7rx_taskv) refers to bmac.o(i._Z22bmac_wait_until_rx_pktv) for bmac_wait_until_rx_pkt()
    main.o(i._Z7rx_taskv) refers to bmac.o(i._Z15bmac_rx_pkt_getPhS_) for bmac_rx_pkt_get(unsigned char*, unsigned char*)
    main.o(i._Z7rx_taskv) refers to __2printf.o(.text) for __2printf
    main.o(i._Z7rx_taskv) refers to strncmp.o(.text) for strncmp
    main.o(i._Z7rx_taskv) refers to rtc_time.c.lpc1768.arm.o(i.clock) for clock
    main.o(i._Z7rx_taskv) refers to main.o(i._Z12all_LEDs_setv) for all_LEDs_set()
    main.o(i._Z7rx_taskv) refers to bmac.o(i._Z19bmac_rx_pkt_releasev) for bmac_rx_pkt_release()
    main.o(i._Z7rx_taskv) refers to nrk_task.o(i._Z26nrk_wait_until_next_periodv) for nrk_wait_until_next_period()
    main.o(i._Z7rx_taskv) refers to main.o(.bss) for .bss
    main.o(i._Z7rx_taskv) refers to main.o(.data) for .data
    main.o(i._Z7tx_taskv) refers to nrk_task.o(i._Z26nrk_wait_until_next_periodv) for nrk_wait_until_next_period()
    main.o(i._Z7tx_taskv) refers to bmac.o(i._Z12bmac_startedv) for bmac_started()
    main.o(i._Z7tx_taskv) refers to bmac.o(i._Z22bmac_set_rx_check_rate10nrk_time_t) for bmac_set_rx_check_rate(nrk_time_t)
    main.o(i._Z7tx_taskv) refers to bmac.o(i._Z23bmac_get_tx_done_signalv) for bmac_get_tx_done_signal()
    main.o(i._Z7tx_taskv) refers to nrk_events.o(i._Z19nrk_signal_registera) for nrk_signal_register(signed char)
    main.o(i._Z7tx_taskv) refers to __2printf.o(.text) for __2printf
    main.o(i._Z7tx_taskv) refers to __2sprintf.o(.text) for __2sprintf
    main.o(i._Z7tx_taskv) refers to bmac.o(i._Z25bmac_addr_decode_dest_mact) for bmac_addr_decode_dest_mac(unsigned short)
    main.o(i._Z7tx_taskv) refers to strlen.o(.text) for strlen
    main.o(i._Z7tx_taskv) refers to bmac.o(i._Z11bmac_tx_pktPch) for bmac_tx_pkt(char*, unsigned char)
    main.o(i._Z7tx_taskv) refers to main.o(.data) for .data
    main.o(i._Z7tx_taskv) refers to main.o(.bss) for .bss
    main.o(i.__sti___8_main_cpp_7b2698e3) refers to DigitalIn.cpp.lpc1768.arm.o(i._ZN4mbed9DigitalInC1E7PinNamePKc) for mbed::DigitalIn::DigitalIn(PinName, const char*)
    main.o(i.__sti___8_main_cpp_7b2698e3) refers to aeabi_atexit.o(.text) for __aeabi_atexit
    main.o(i.__sti___8_main_cpp_7b2698e3) refers to main.o(.bss) for .bss
    main.o(i.__sti___8_main_cpp_7b2698e3) refers to DigitalIn.cpp.lpc1768.arm.o(i._ZN4mbed9DigitalInD1Ev) for mbed::DigitalIn::~DigitalIn()
    main.o(i.main) refers to ulib.o(i._Z15nrk_setup_portsv) for nrk_setup_ports()
    main.o(i.main) refers to nrk.o(i._Z8nrk_initv) for nrk_init()
    main.o(i.main) refers to bmac.o(i._Z16bmac_task_configv) for bmac_task_config()
    main.o(i.main) refers to main.o(i._Z18nrk_create_tasksetv) for nrk_create_taskset()
    main.o(i.main) refers to nrk.o(i._Z9nrk_startv) for nrk_start()
    main.o(i.main) refers to rtc_time.c.lpc1768.arm.o(i.clock) for clock
    main.o(i.main) refers to main.o(i._Z12all_LEDs_clrv) for all_LEDs_clr()
    main.o(i.main) refers to DigitalIn.cpp.lpc1768.arm.o(i._ZN4mbed9DigitalIncviEv) for mbed::DigitalIn::operator int()
    main.o(i.main) refers to main.o(.data) for .data
    main.o(i.main) refers to main.o(.bss) for .bss
    main.o(.ARM.exidx) refers to main.o(i._Z12all_LEDs_setv) for i._Z12all_LEDs_setv
    main.o(.ARM.exidx) refers to main.o(i._Z12all_LEDs_clrv) for i._Z12all_LEDs_clrv
    main.o(.ARM.exidx) refers to main.o(i._Z14mrfIsrCallbackv) for i._Z14mrfIsrCallbackv
    main.o(.ARM.exidx) refers to main.o(i._Z7tx_taskv) for i._Z7tx_taskv
    main.o(.ARM.exidx) refers to main.o(i._Z7rx_taskv) for i._Z7rx_taskv
    main.o(.ARM.exidx) refers to main.o(i._Z18nrk_create_tasksetv) for i._Z18nrk_create_tasksetv
    main.o(.ARM.exidx) refers to main.o(i.main) for i.main
    main.o(.ARM.exidx) refers to main.o(i.__sti___8_main_cpp_7b2698e3) for i.__sti___8_main_cpp_7b2698e3
    main.o(.init_array) refers to main.o(i.__sti___8_main_cpp_7b2698e3) for __sti___8_main_cpp_7b2698e3
    main.o(.init_array) refers to init_aeabi.o(.text) for __cpp_initialize__aeabi_
    startup_LPC17xx.o(RESET) refers to startup_LPC17xx.o(.text) for Reset_Handler
    startup_LPC17xx.o(RESET) refers to my_asm.o(.text) for PendSV_Handler
    startup_LPC17xx.o(RESET) refers to nrk_timer.o(i.TIMER0_IRQHandler) for TIMER0_IRQHandler
    startup_LPC17xx.o(RESET) refers to nrk_timer.o(i.TIMER1_IRQHandler) for TIMER1_IRQHandler
    startup_LPC17xx.o(RESET) refers to basic_rf.o(i.EINT3_IRQHandler) for EINT3_IRQHandler
    startup_LPC17xx.o(.text) refers to system_LPC17xx.o(i.SystemInit) for SystemInit
    startup_LPC17xx.o(.text) refers to __main.o(!!!main) for __main
    system_LPC17xx.o(i.SystemCoreClockUpdate) refers to system_LPC17xx.o(.data) for .data
    cmsis_nvic.o(i.NVIC_SetVector) refers to cmsis_nvic.o(.ARM.__AT_0x10000000) for .ARM.__AT_0x10000000
    rtc_time.c.lpc1768.arm.o(i.clock) refers to us_ticker_api.c.lpc1768.arm.o(i.us_ticker_read) for us_ticker_read
    rtc_time.c.lpc1768.arm.o(i.clock) refers to aeabi_clocks.o(.constdata) for __aeabi_CLOCKS_PER_SEC
    rtc_time.c.lpc1768.arm.o(i.set_time) refers to rtc_api.c.lpc1768.arm.o(i.rtc_init) for rtc_init
    rtc_time.c.lpc1768.arm.o(i.set_time) refers to rtc_api.c.lpc1768.arm.o(i.rtc_write) for rtc_write
    rtc_time.c.lpc1768.arm.o(i.time) refers to rtc_api.c.lpc1768.arm.o(i.rtc_read) for rtc_read
    wait_api.c.lpc1768.arm.o(i.wait) refers to f2d.o(x$fpl$f2d) for __aeabi_f2d
    wait_api.c.lpc1768.arm.o(i.wait) refers to dmul.o(x$fpl$dmul) for __aeabi_dmul
    wait_api.c.lpc1768.arm.o(i.wait) refers to dfix.o(x$fpl$dfix) for __aeabi_d2iz
    wait_api.c.lpc1768.arm.o(i.wait) refers to us_ticker_api.c.lpc1768.arm.o(i.us_ticker_read) for us_ticker_read
    wait_api.c.lpc1768.arm.o(i.wait_ms) refers to us_ticker_api.c.lpc1768.arm.o(i.us_ticker_read) for us_ticker_read
    wait_api.c.lpc1768.arm.o(i.wait_us) refers to us_ticker_api.c.lpc1768.arm.o(i.us_ticker_read) for us_ticker_read
    Base.cpp.lpc1768.arm.o(i._ZN4mbed4Base11delete_selfEv) refers to array_del.o(i._ZdaPv) for operator delete[] (void*)
    Base.cpp.lpc1768.arm.o(i._ZN4mbed4Base15get_rpc_methodsEv) refers to Base.cpp.lpc1768.arm.o(.constdata) for .constdata
    Base.cpp.lpc1768.arm.o(i._ZN4mbed4Base15register_objectEPKc) refers to Base.cpp.lpc1768.arm.o(.data) for .data
    Base.cpp.lpc1768.arm.o(i._ZN4mbed4Base3rpcEPKcS2_Pc) refers to sprintf.o(.text) for sprintf
    Base.cpp.lpc1768.arm.o(i._ZN4mbed4Base3rpcEPKcS2_Pc) refers to strcmpv7m.o(.text) for strcmp
    Base.cpp.lpc1768.arm.o(i._ZN4mbed4Base3rpcEPKcS2_S2_Pc) refers to sprintf.o(.text) for sprintf
    Base.cpp.lpc1768.arm.o(i._ZN4mbed4Base3rpcEPKcS2_S2_Pc) refers to strlen.o(.text) for strlen
    Base.cpp.lpc1768.arm.o(i._ZN4mbed4Base3rpcEPKcS2_S2_Pc) refers to strncmp.o(.text) for strncmp
    Base.cpp.lpc1768.arm.o(i._ZN4mbed4Base3rpcEPKcS2_S2_Pc) refers to strcmpv7m.o(.text) for strcmp
    Base.cpp.lpc1768.arm.o(i._ZN4mbed4Base3rpcEPKcS2_S2_Pc) refers to Base.cpp.lpc1768.arm.o(.data) for .data
    Base.cpp.lpc1768.arm.o(i._ZN4mbed4Base5clearEPKcPc) refers to array_del.o(i._ZdaPv) for operator delete[] (void*)
    Base.cpp.lpc1768.arm.o(i._ZN4mbed4Base5clearEPKcPc) refers to Base.cpp.lpc1768.arm.o(.data) for .data
    Base.cpp.lpc1768.arm.o(i._ZN4mbed4Base6lookupEPKcj) refers to strncmp.o(.text) for strncmp
    Base.cpp.lpc1768.arm.o(i._ZN4mbed4Base6lookupEPKcj) refers to strlen.o(.text) for strlen
    Base.cpp.lpc1768.arm.o(i._ZN4mbed4Base6lookupEPKcj) refers to Base.cpp.lpc1768.arm.o(.data) for .data
    Base.cpp.lpc1768.arm.o(i._ZN4mbed4Base7opendirEv) refers to new.o(i._Znwj) for operator new(unsigned)
    Base.cpp.lpc1768.arm.o(i._ZN4mbed4Base7opendirEv) refers to Base.cpp.lpc1768.arm.o(.constdata__ZTVN4mbed13BaseDirHandleE) for vtable for mbed::BaseDirHandle
    Base.cpp.lpc1768.arm.o(i._ZN4mbed4Base8new_nameEPS0_) refers to array_new.o(i._Znaj) for operator new[] (unsigned)
    Base.cpp.lpc1768.arm.o(i._ZN4mbed4Base8new_nameEPS0_) refers to sprintf.o(.text) for sprintf
    Base.cpp.lpc1768.arm.o(i._ZN4mbed4Base9list_objsEPKcPc) refers to sprintf.o(.text) for sprintf
    Base.cpp.lpc1768.arm.o(i._ZN4mbed4Base9list_objsEPKcPc) refers to Base.cpp.lpc1768.arm.o(.data) for .data
    Base.cpp.lpc1768.arm.o(i._ZN4mbed4BaseC1EPKc) refers to Base.cpp.lpc1768.arm.o(.constdata__ZTVN4mbed4BaseE) for vtable for mbed::Base
    Base.cpp.lpc1768.arm.o(i._ZN4mbed4BaseC1EPKc) refers to Base.cpp.lpc1768.arm.o(.data) for .data
    Base.cpp.lpc1768.arm.o(i._ZN4mbed4BaseD0Ev) refers to delete.o(i._ZdlPv) for operator delete (void*)
    Base.cpp.lpc1768.arm.o(i._ZN4mbed4BaseD0Ev) refers to Base.cpp.lpc1768.arm.o(.constdata__ZTVN4mbed4BaseE) for vtable for mbed::Base
    Base.cpp.lpc1768.arm.o(i._ZN4mbed4BaseD0Ev) refers to Base.cpp.lpc1768.arm.o(.data) for .data
    Base.cpp.lpc1768.arm.o(i._ZN4mbed4BaseD1Ev) refers to Base.cpp.lpc1768.arm.o(.constdata__ZTVN4mbed4BaseE) for vtable for mbed::Base
    Base.cpp.lpc1768.arm.o(i._ZN4mbed4BaseD1Ev) refers to Base.cpp.lpc1768.arm.o(.data) for .data
    Base.cpp.lpc1768.arm.o(.ARM.exidx) refers to Base.cpp.lpc1768.arm.o(i._ZN4mbed4BaseC1EPKc) for i._ZN4mbed4BaseC1EPKc
    Base.cpp.lpc1768.arm.o(.ARM.exidx) refers to Base.cpp.lpc1768.arm.o(i._ZN4mbed4BaseD1Ev) for i._ZN4mbed4BaseD1Ev
    Base.cpp.lpc1768.arm.o(.ARM.exidx) refers to Base.cpp.lpc1768.arm.o(i._ZN4mbed4BaseD0Ev) for i._ZN4mbed4BaseD0Ev
    Base.cpp.lpc1768.arm.o(.ARM.exidx) refers to Base.cpp.lpc1768.arm.o(i._ZN4mbed4Base15register_objectEPKc) for i._ZN4mbed4Base15register_objectEPKc
    Base.cpp.lpc1768.arm.o(.ARM.exidx) refers to Base.cpp.lpc1768.arm.o(i._ZN4mbed4Base4nameEv) for i._ZN4mbed4Base4nameEv
    Base.cpp.lpc1768.arm.o(.ARM.exidx) refers to Base.cpp.lpc1768.arm.o(i._ZN4mbed4Base3rpcEPKcS2_Pc) for i._ZN4mbed4Base3rpcEPKcS2_Pc
    Base.cpp.lpc1768.arm.o(.ARM.exidx) refers to Base.cpp.lpc1768.arm.o(i._ZN4mbed4Base15get_rpc_methodsEv) for i._ZN4mbed4Base15get_rpc_methodsEv
    Base.cpp.lpc1768.arm.o(.ARM.exidx) refers to Base.cpp.lpc1768.arm.o(i._ZN4mbed4Base6lookupEPKcj) for i._ZN4mbed4Base6lookupEPKcj
    Base.cpp.lpc1768.arm.o(.ARM.exidx) refers to Base.cpp.lpc1768.arm.o(i._ZN4mbed4Base3rpcEPKcS2_S2_Pc) for i._ZN4mbed4Base3rpcEPKcS2_S2_Pc
    Base.cpp.lpc1768.arm.o(.ARM.exidx) refers to Base.cpp.lpc1768.arm.o(i._ZN4mbed4Base7opendirEv) for i._ZN4mbed4Base7opendirEv
    Base.cpp.lpc1768.arm.o(.ARM.exidx) refers to Base.cpp.lpc1768.arm.o(i._ZN4mbed4Base11delete_selfEv) for i._ZN4mbed4Base11delete_selfEv
    Base.cpp.lpc1768.arm.o(.ARM.exidx) refers to Base.cpp.lpc1768.arm.o(i._ZN4mbed4Base9list_objsEPKcPc) for i._ZN4mbed4Base9list_objsEPKcPc
    Base.cpp.lpc1768.arm.o(.ARM.exidx) refers to Base.cpp.lpc1768.arm.o(i._ZN4mbed4Base5clearEPKcPc) for i._ZN4mbed4Base5clearEPKcPc
    Base.cpp.lpc1768.arm.o(.ARM.exidx) refers to Base.cpp.lpc1768.arm.o(i._ZN4mbed4Base8new_nameEPS0_) for i._ZN4mbed4Base8new_nameEPS0_
    Base.cpp.lpc1768.arm.o(.constdata) refers to Base.cpp.lpc1768.arm.o(i._ZN4mbed4Base11delete_selfEv) for mbed::Base::delete_self()
    Base.cpp.lpc1768.arm.o(.constdata) refers to Base.cpp.lpc1768.arm.o(.conststring) for .conststring
    Base.cpp.lpc1768.arm.o(.constdata) refers to Base.cpp.lpc1768.arm.o(t._ZN4mbed17rpc_method_callerINS_4BaseEXadL_ZNS1_11delete_selfEvEEEEvPS1_PKcPc) for void mbed::rpc_method_caller<mbed::Base, (&mbed::Base::delete_self)>(mbed::Base*, const char*, char*)
    Base.cpp.lpc1768.arm.o(.constdata) refers to Base.cpp.lpc1768.arm.o(.conststring) for .conststring
    Base.cpp.lpc1768.arm.o(.constdata) refers to Base.cpp.lpc1768.arm.o(i._ZN4mbed4Base5clearEPKcPc) for mbed::Base::clear(const char*, char*)
    Base.cpp.lpc1768.arm.o(.constdata) refers to Base.cpp.lpc1768.arm.o(i._ZN4mbed4Base9list_objsEPKcPc) for mbed::Base::list_objs(const char*, char*)
    Base.cpp.lpc1768.arm.o(.data) refers to Base.cpp.lpc1768.arm.o(.data) for mbed::Base::_base_class
    Base.cpp.lpc1768.arm.o(.data) refers to Base.cpp.lpc1768.arm.o(.conststring) for .conststring
    Base.cpp.lpc1768.arm.o(.data) refers to Base.cpp.lpc1768.arm.o(.constdata) for mbed::Base::_base_funcs
    DigitalIn.cpp.lpc1768.arm.o(i._ZN4mbed9DigitalIn13get_rpc_classEv) refers to DigitalIn.cpp.lpc1768.arm.o(.data) for .data
    DigitalIn.cpp.lpc1768.arm.o(i._ZN4mbed9DigitalIn15get_rpc_methodsEv) refers to DigitalIn.cpp.lpc1768.arm.o(.constdata) for .constdata
    DigitalIn.cpp.lpc1768.arm.o(i._ZN4mbed9DigitalIn4modeE7PinMode) refers to gpio_api.c.lpc1768.arm.o(i.gpio_mode) for gpio_mode
    DigitalIn.cpp.lpc1768.arm.o(i._ZN4mbed9DigitalIn4readEv) refers to gpio_api.c.lpc1768.arm.o(i.gpio_read) for gpio_read
    DigitalIn.cpp.lpc1768.arm.o(i._ZN4mbed9DigitalInC1E7PinNamePKc) refers to Base.cpp.lpc1768.arm.o(i._ZN4mbed4BaseC1EPKc) for mbed::Base::Base(const char*)
    DigitalIn.cpp.lpc1768.arm.o(i._ZN4mbed9DigitalInC1E7PinNamePKc) refers to gpio_api.c.lpc1768.arm.o(i.gpio_input) for gpio_input
    DigitalIn.cpp.lpc1768.arm.o(i._ZN4mbed9DigitalInC1E7PinNamePKc) refers to DigitalIn.cpp.lpc1768.arm.o(.constdata__ZTVN4mbed9DigitalInE) for vtable for mbed::DigitalIn
    DigitalIn.cpp.lpc1768.arm.o(i._ZN4mbed9DigitalIncviEv) refers to gpio_api.c.lpc1768.arm.o(i.gpio_read) for gpio_read
    DigitalIn.cpp.lpc1768.arm.o(.ARM.exidx) refers to DigitalIn.cpp.lpc1768.arm.o(i._ZN4mbed9DigitalInC1E7PinNamePKc) for i._ZN4mbed9DigitalInC1E7PinNamePKc
    DigitalIn.cpp.lpc1768.arm.o(.ARM.exidx) refers to DigitalIn.cpp.lpc1768.arm.o(i._ZN4mbed9DigitalIn4readEv) for i._ZN4mbed9DigitalIn4readEv
    DigitalIn.cpp.lpc1768.arm.o(.ARM.exidx) refers to DigitalIn.cpp.lpc1768.arm.o(i._ZN4mbed9DigitalIn4modeE7PinMode) for i._ZN4mbed9DigitalIn4modeE7PinMode
    DigitalIn.cpp.lpc1768.arm.o(.ARM.exidx) refers to DigitalIn.cpp.lpc1768.arm.o(i._ZN4mbed9DigitalIncviEv) for i._ZN4mbed9DigitalIncviEv
    DigitalIn.cpp.lpc1768.arm.o(.ARM.exidx) refers to DigitalIn.cpp.lpc1768.arm.o(i._ZN4mbed9DigitalIn15get_rpc_methodsEv) for i._ZN4mbed9DigitalIn15get_rpc_methodsEv
    DigitalIn.cpp.lpc1768.arm.o(.ARM.exidx) refers to DigitalIn.cpp.lpc1768.arm.o(i._ZN4mbed9DigitalIn13get_rpc_classEv) for i._ZN4mbed9DigitalIn13get_rpc_classEv
    DigitalIn.cpp.lpc1768.arm.o(.constdata) refers to DigitalIn.cpp.lpc1768.arm.o(i._ZN4mbed9DigitalIn4readEv) for mbed::DigitalIn::read()
    DigitalIn.cpp.lpc1768.arm.o(.constdata) refers to DigitalIn.cpp.lpc1768.arm.o(.conststring) for .conststring
    DigitalIn.cpp.lpc1768.arm.o(.constdata) refers to DigitalIn.cpp.lpc1768.arm.o(t._ZN4mbed17rpc_method_callerIiNS_9DigitalInEXadL_ZNS1_4readEvEEEEvPNS_4BaseEPKcPc) for void mbed::rpc_method_caller<int, mbed::DigitalIn, (&mbed::DigitalIn::read)>(mbed::Base*, const char*, char*)
    DigitalIn.cpp.lpc1768.arm.o(.constdata) refers to DigitalIn.cpp.lpc1768.arm.o(t._ZN4mbed9rpc_superINS_4BaseEEEPKNS_10rpc_methodEPS1_) for const mbed::rpc_method* mbed::rpc_super<mbed::Base>(mbed::Base*)
    DigitalIn.cpp.lpc1768.arm.o(.constdata) refers to DigitalIn.cpp.lpc1768.arm.o(.conststring) for .conststring
    DigitalIn.cpp.lpc1768.arm.o(.constdata) refers to DigitalIn.cpp.lpc1768.arm.o(t._ZN4mbed19rpc_function_callerIPKc7PinNameS2_XadL_ZNS_4Base9constructINS_9DigitalInES3_S2_EES2_T0_T1_EEEEvS2_Pc) for void mbed::rpc_function_caller<const char*, PinName, const char*, (&mbed::Base::construct<mbed::DigitalIn, PinName, const char*>)>(const char*, char*)
    DigitalIn.cpp.lpc1768.arm.o(.data) refers to DigitalIn.cpp.lpc1768.arm.o(.conststring) for .conststring
    DigitalIn.cpp.lpc1768.arm.o(.data) refers to DigitalIn.cpp.lpc1768.arm.o(.constdata) for funcs
    rtc_api.c.lpc1768.arm.o(i.rtc_read) refers to mktime.o(.text) for mktime
    rtc_api.c.lpc1768.arm.o(i.rtc_write) refers to localtime.o(.text) for localtime
    gpio_api.c.lpc1768.arm.o(i.gpio_input) refers to pinmap.c.lpc1768.arm.o(i.pin_function) for pin_function
    gpio_api.c.lpc1768.arm.o(i.gpio_input) refers to pinmap.c.lpc1768.arm.o(i.pin_mode) for pin_mode
    gpio_api.c.lpc1768.arm.o(i.gpio_mode) refers to pinmap.c.lpc1768.arm.o(i.pin_mode) for pin_mode
    gpio_api.c.lpc1768.arm.o(i.gpio_output) refers to pinmap.c.lpc1768.arm.o(i.pin_function) for pin_function
    gpio_api.c.lpc1768.arm.o(i.gpio_output) refers to pinmap.c.lpc1768.arm.o(i.pin_mode) for pin_mode
    us_ticker_api.c.lpc1768.arm.o(i.us_ticker_read) refers to timer_api.c.lpc1768.arm.o(i.timer_init) for timer_init
    us_ticker_api.c.lpc1768.arm.o(i.us_ticker_read) refers to timer_api.c.lpc1768.arm.o(i.timer_frequency) for timer_frequency
    us_ticker_api.c.lpc1768.arm.o(i.us_ticker_read) refers to timer_api.c.lpc1768.arm.o(i.timer_start) for timer_start
    us_ticker_api.c.lpc1768.arm.o(i.us_ticker_read) refers to timer_api.c.lpc1768.arm.o(i.timer_read) for timer_read
    us_ticker_api.c.lpc1768.arm.o(i.us_ticker_read) refers to us_ticker_api.c.lpc1768.arm.o(.data) for .data
    stdio.cpp.lpc1768.arm.o(i._ZN4mbed8FileLikeD0Ev) refers to Base.cpp.lpc1768.arm.o(i._ZN4mbed4BaseD1Ev) for mbed::Base::~Base()
    stdio.cpp.lpc1768.arm.o(i._ZN4mbed8FileLikeD0Ev) refers to delete.o(i._ZdlPv) for operator delete (void*)
    stdio.cpp.lpc1768.arm.o(i._ZN4mbed8FileLikeD0Ev) refers to stdio.cpp.lpc1768.arm.o(.constdata__ZTVN4mbed8FileLikeE) for vtable for mbed::FileLike
    stdio.cpp.lpc1768.arm.o(i._ZN4mbed8FileLikeD0Ev) refers to stdio.cpp.lpc1768.arm.o(.bss) for .bss
    stdio.cpp.lpc1768.arm.o(i._ZN4mbed8FileLikeD2Ev) refers to Base.cpp.lpc1768.arm.o(i._ZN4mbed4BaseD1Ev) for mbed::Base::~Base()
    stdio.cpp.lpc1768.arm.o(i._ZN4mbed8FileLikeD2Ev) refers to stdio.cpp.lpc1768.arm.o(.constdata__ZTVN4mbed8FileLikeE) for vtable for mbed::FileLike
    stdio.cpp.lpc1768.arm.o(i._ZN4mbed8FileLikeD2Ev) refers to stdio.cpp.lpc1768.arm.o(.bss) for .bss
    stdio.cpp.lpc1768.arm.o(i._sys_close) refers to stdio.cpp.lpc1768.arm.o(.bss) for .bss
    stdio.cpp.lpc1768.arm.o(i._sys_ensure) refers to stdio.cpp.lpc1768.arm.o(.bss) for .bss
    stdio.cpp.lpc1768.arm.o(i._sys_flen) refers to stdio.cpp.lpc1768.arm.o(.bss) for .bss
    stdio.cpp.lpc1768.arm.o(i._sys_istty) refers to stdio.cpp.lpc1768.arm.o(.bss) for .bss
    stdio.cpp.lpc1768.arm.o(i._sys_open) refers to strcmpv7m.o(.text) for strcmp
    stdio.cpp.lpc1768.arm.o(i._sys_open) refers to serial_api.c.lpc1768.arm.o(i.serial_init) for serial_init
    stdio.cpp.lpc1768.arm.o(i._sys_open) refers to serial_api.c.lpc1768.arm.o(i.serial_format) for serial_format
    stdio.cpp.lpc1768.arm.o(i._sys_open) refers to serial_api.c.lpc1768.arm.o(i.serial_baud) for serial_baud
    stdio.cpp.lpc1768.arm.o(i._sys_open) refers to sscanf.o(.text) for sscanf
    stdio.cpp.lpc1768.arm.o(i._sys_open) refers to Base.cpp.lpc1768.arm.o(i._ZN4mbed4Base6lookupEPKcj) for mbed::Base::lookup(const char*, unsigned)
    stdio.cpp.lpc1768.arm.o(i._sys_open) refers to rtti.o(i.__dynamic_cast) for __dynamic_cast
    stdio.cpp.lpc1768.arm.o(i._sys_open) refers to stdio.cpp.lpc1768.arm.o(.constdata) for .constdata
    stdio.cpp.lpc1768.arm.o(i._sys_open) refers to stdio.cpp.lpc1768.arm.o(.bss) for .bss
    stdio.cpp.lpc1768.arm.o(i._sys_open) refers to stdio.cpp.lpc1768.arm.o(.constdata__ZTIN4mbed8FileLikeE) for typeinfo for mbed::FileLike
    stdio.cpp.lpc1768.arm.o(i._sys_open) refers to Base.cpp.lpc1768.arm.o(.constdata__ZTIN4mbed4BaseE) for typeinfo for mbed::Base
    stdio.cpp.lpc1768.arm.o(i._sys_open) refers to Base.cpp.lpc1768.arm.o(.constdata__ZTIN4mbed14FileSystemLikeE) for typeinfo for mbed::FileSystemLike
    stdio.cpp.lpc1768.arm.o(i._sys_read) refers to serial_api.c.lpc1768.arm.o(i.serial_getc) for serial_getc
    stdio.cpp.lpc1768.arm.o(i._sys_read) refers to stdio.cpp.lpc1768.arm.o(.bss) for .bss
    stdio.cpp.lpc1768.arm.o(i._sys_seek) refers to stdio.cpp.lpc1768.arm.o(.bss) for .bss
    stdio.cpp.lpc1768.arm.o(i._sys_write) refers to serial_api.c.lpc1768.arm.o(i.serial_putc) for serial_putc
    stdio.cpp.lpc1768.arm.o(i._sys_write) refers to stdio.cpp.lpc1768.arm.o(.bss) for .bss
    stdio.cpp.lpc1768.arm.o(i.mkdir) refers to Base.cpp.lpc1768.arm.o(i._ZN4mbed4Base6lookupEPKcj) for mbed::Base::lookup(const char*, unsigned)
    stdio.cpp.lpc1768.arm.o(i.mkdir) refers to rtti.o(i.__dynamic_cast) for __dynamic_cast
    stdio.cpp.lpc1768.arm.o(i.mkdir) refers to Base.cpp.lpc1768.arm.o(.constdata__ZTIN4mbed14FileSystemLikeE) for typeinfo for mbed::FileSystemLike
    stdio.cpp.lpc1768.arm.o(i.mkdir) refers to Base.cpp.lpc1768.arm.o(.constdata__ZTIN4mbed4BaseE) for typeinfo for mbed::Base
    stdio.cpp.lpc1768.arm.o(i.opendir) refers to Base.cpp.lpc1768.arm.o(i._ZN4mbed4Base7opendirEv) for mbed::Base::opendir()
    stdio.cpp.lpc1768.arm.o(i.opendir) refers to Base.cpp.lpc1768.arm.o(i._ZN4mbed4Base6lookupEPKcj) for mbed::Base::lookup(const char*, unsigned)
    stdio.cpp.lpc1768.arm.o(i.opendir) refers to rtti.o(i.__dynamic_cast) for __dynamic_cast
    stdio.cpp.lpc1768.arm.o(i.opendir) refers to Base.cpp.lpc1768.arm.o(.constdata__ZTIN4mbed14FileSystemLikeE) for typeinfo for mbed::FileSystemLike
    stdio.cpp.lpc1768.arm.o(i.opendir) refers to Base.cpp.lpc1768.arm.o(.constdata__ZTIN4mbed4BaseE) for typeinfo for mbed::Base
    stdio.cpp.lpc1768.arm.o(i.remove) refers to Base.cpp.lpc1768.arm.o(i._ZN4mbed4Base6lookupEPKcj) for mbed::Base::lookup(const char*, unsigned)
    stdio.cpp.lpc1768.arm.o(i.remove) refers to rtti.o(i.__dynamic_cast) for __dynamic_cast
    stdio.cpp.lpc1768.arm.o(i.remove) refers to Base.cpp.lpc1768.arm.o(.constdata__ZTIN4mbed14FileSystemLikeE) for typeinfo for mbed::FileSystemLike
    stdio.cpp.lpc1768.arm.o(i.remove) refers to Base.cpp.lpc1768.arm.o(.constdata__ZTIN4mbed4BaseE) for typeinfo for mbed::Base
    stdio.cpp.lpc1768.arm.o(.ARM.exidx) refers to stdio.cpp.lpc1768.arm.o(i._sys_open) for i._sys_open
    stdio.cpp.lpc1768.arm.o(.ARM.exidx) refers to stdio.cpp.lpc1768.arm.o(i._sys_close) for i._sys_close
    stdio.cpp.lpc1768.arm.o(.ARM.exidx) refers to stdio.cpp.lpc1768.arm.o(i._sys_write) for i._sys_write
    stdio.cpp.lpc1768.arm.o(.ARM.exidx) refers to stdio.cpp.lpc1768.arm.o(i._sys_read) for i._sys_read
    stdio.cpp.lpc1768.arm.o(.ARM.exidx) refers to stdio.cpp.lpc1768.arm.o(i._sys_istty) for i._sys_istty
    stdio.cpp.lpc1768.arm.o(.ARM.exidx) refers to stdio.cpp.lpc1768.arm.o(i._sys_seek) for i._sys_seek
    stdio.cpp.lpc1768.arm.o(.ARM.exidx) refers to stdio.cpp.lpc1768.arm.o(i._sys_ensure) for i._sys_ensure
    stdio.cpp.lpc1768.arm.o(.ARM.exidx) refers to stdio.cpp.lpc1768.arm.o(i._sys_flen) for i._sys_flen
    stdio.cpp.lpc1768.arm.o(.ARM.exidx) refers to stdio.cpp.lpc1768.arm.o(i.remove) for i.remove
    stdio.cpp.lpc1768.arm.o(.ARM.exidx) refers to stdio.cpp.lpc1768.arm.o(i.rename) for i.rename
    stdio.cpp.lpc1768.arm.o(.ARM.exidx) refers to stdio.cpp.lpc1768.arm.o(i.tmpnam) for i.tmpnam
    stdio.cpp.lpc1768.arm.o(.ARM.exidx) refers to stdio.cpp.lpc1768.arm.o(i.tmpfile) for i.tmpfile
    stdio.cpp.lpc1768.arm.o(.ARM.exidx) refers to stdio.cpp.lpc1768.arm.o(i._sys_command_string) for i._sys_command_string
    stdio.cpp.lpc1768.arm.o(.ARM.exidx) refers to stdio.cpp.lpc1768.arm.o(i.opendir) for i.opendir
    stdio.cpp.lpc1768.arm.o(.ARM.exidx) refers to stdio.cpp.lpc1768.arm.o(i.readdir) for i.readdir
    stdio.cpp.lpc1768.arm.o(.ARM.exidx) refers to stdio.cpp.lpc1768.arm.o(i.closedir) for i.closedir
    stdio.cpp.lpc1768.arm.o(.ARM.exidx) refers to stdio.cpp.lpc1768.arm.o(i.rewinddir) for i.rewinddir
    stdio.cpp.lpc1768.arm.o(.ARM.exidx) refers to stdio.cpp.lpc1768.arm.o(i.telldir) for i.telldir
    stdio.cpp.lpc1768.arm.o(.ARM.exidx) refers to stdio.cpp.lpc1768.arm.o(i.seekdir) for i.seekdir
    stdio.cpp.lpc1768.arm.o(.ARM.exidx) refers to stdio.cpp.lpc1768.arm.o(i.mkdir) for i.mkdir
    stdio.cpp.lpc1768.arm.o(.ARM.exidx) refers to stdio.cpp.lpc1768.arm.o(i._ZN4mbed8FileLikeD2Ev) for i._ZN4mbed8FileLikeD2Ev
    stdio.cpp.lpc1768.arm.o(.ARM.exidx) refers to stdio.cpp.lpc1768.arm.o(i._ZN4mbed8FileLikeD0Ev) for i._ZN4mbed8FileLikeD0Ev
    timer_api.c.lpc1768.arm.o(i.timer_frequency) refers to system_LPC17xx.o(.data) for SystemCoreClock
    timer_api.c.lpc1768.arm.o(i.timer_init) refers to system_LPC17xx.o(.data) for SystemCoreClock
    serial_api.c.lpc1768.arm.o(i.serial_baud) refers to fflt_clz.o(x$fpl$fflt) for __aeabi_i2f
    serial_api.c.lpc1768.arm.o(i.serial_baud) refers to scalbnf.o(i.scalbnf) for scalbnf
    serial_api.c.lpc1768.arm.o(i.serial_baud) refers to fmul.o(x$fpl$fmul) for __aeabi_fmul
    serial_api.c.lpc1768.arm.o(i.serial_baud) refers to fflt_clz.o(x$fpl$ffltu) for __aeabi_ui2f
    serial_api.c.lpc1768.arm.o(i.serial_baud) refers to fdiv.o(x$fpl$fdiv) for __aeabi_fdiv
    serial_api.c.lpc1768.arm.o(i.serial_baud) refers to faddsub_clz.o(x$fpl$fadd) for __aeabi_fadd
    serial_api.c.lpc1768.arm.o(i.serial_baud) refers to ffix.o(x$fpl$ffix) for __aeabi_f2iz
    serial_api.c.lpc1768.arm.o(i.serial_baud) refers to assert.o(.text) for __aeabi_assert
    serial_api.c.lpc1768.arm.o(i.serial_baud) refers to system_LPC17xx.o(.data) for SystemCoreClock
    serial_api.c.lpc1768.arm.o(i.serial_format) refers to fprintf.o(.text) for fprintf
    serial_api.c.lpc1768.arm.o(i.serial_format) refers to exit.c.lpc1768.arm.o(i.exit) for exit
    serial_api.c.lpc1768.arm.o(i.serial_format) refers to stdio_streams.o(.data) for __aeabi_stderr
    serial_api.c.lpc1768.arm.o(i.serial_format) refers to serial_api.c.lpc1768.arm.o(.constdata) for .constdata
    serial_api.c.lpc1768.arm.o(i.serial_init) refers to pinmap.c.lpc1768.arm.o(i.pinmap_peripheral) for pinmap_peripheral
    serial_api.c.lpc1768.arm.o(i.serial_init) refers to pinmap.c.lpc1768.arm.o(i.pinmap_merge) for pinmap_merge
    serial_api.c.lpc1768.arm.o(i.serial_init) refers to fprintf.o(.text) for fprintf
    serial_api.c.lpc1768.arm.o(i.serial_init) refers to exit.c.lpc1768.arm.o(i.exit) for exit
    serial_api.c.lpc1768.arm.o(i.serial_init) refers to serial_api.c.lpc1768.arm.o(i.serial_baud) for serial_baud
    serial_api.c.lpc1768.arm.o(i.serial_init) refers to serial_api.c.lpc1768.arm.o(i.serial_format) for serial_format
    serial_api.c.lpc1768.arm.o(i.serial_init) refers to pinmap.c.lpc1768.arm.o(i.pinmap_pinout) for pinmap_pinout
    serial_api.c.lpc1768.arm.o(i.serial_init) refers to serial_api.c.lpc1768.arm.o(.constdata) for .constdata
    serial_api.c.lpc1768.arm.o(i.serial_init) refers to stdio_streams.o(.data) for __aeabi_stderr
    pinmap.c.lpc1768.arm.o(i.pinmap_merge) refers to fprintf.o(.text) for fprintf
    pinmap.c.lpc1768.arm.o(i.pinmap_merge) refers to exit.c.lpc1768.arm.o(i.exit) for exit
    pinmap.c.lpc1768.arm.o(i.pinmap_merge) refers to stdio_streams.o(.data) for __aeabi_stderr
    pinmap.c.lpc1768.arm.o(i.pinmap_peripheral) refers to fprintf.o(.text) for fprintf
    pinmap.c.lpc1768.arm.o(i.pinmap_peripheral) refers to exit.c.lpc1768.arm.o(i.exit) for exit
    pinmap.c.lpc1768.arm.o(i.pinmap_peripheral) refers to stdio_streams.o(.data) for __aeabi_stderr
    pinmap.c.lpc1768.arm.o(i.pinmap_pinout) refers to fprintf.o(.text) for fprintf
    pinmap.c.lpc1768.arm.o(i.pinmap_pinout) refers to exit.c.lpc1768.arm.o(i.exit) for exit
    pinmap.c.lpc1768.arm.o(i.pinmap_pinout) refers to stdio_streams.o(.data) for __aeabi_stderr
    exit.c.lpc1768.arm.o(i.exit) refers to semihost_api.c.lpc1768.arm.o(i.semihost_exit) for semihost_exit
    exit.c.lpc1768.arm.o(i.exit) refers to utils_api.c.lpc1768.arm.o(i.mbed_die) for mbed_die
    utils_api.c.lpc1768.arm.o(i.mbed_die) refers to gpio_api.c.lpc1768.arm.o(i.gpio_output) for gpio_output
    utils_api.c.lpc1768.arm.o(i.mbed_die) refers to gpio_api.c.lpc1768.arm.o(i.gpio_write) for gpio_write
    utils_api.c.lpc1768.arm.o(i.mbed_die) refers to wait_api.c.lpc1768.arm.o(i.wait_ms) for wait_ms
    utils_api.c.lpc1768.arm.o(i.mbed_mac_address) refers to semihost_api.c.lpc1768.arm.o(i.semihost_uid) for semihost_uid
    utils_api.c.lpc1768.arm.o(i.mbed_mac_address) refers to sscanf.o(.text) for sscanf
    utils_api.c.lpc1768.arm.o(i.mbed_reset) refers to semihost_api.c.lpc1768.arm.o(i.semihost_reset) for semihost_reset
    utils_api.c.lpc1768.arm.o(i.mbed_reset) refers to fprintf.o(.text) for fprintf
    utils_api.c.lpc1768.arm.o(i.mbed_reset) refers to exit.c.lpc1768.arm.o(i.exit) for exit
    utils_api.c.lpc1768.arm.o(i.mbed_reset) refers to stdio_streams.o(.data) for __aeabi_stderr
    utils_api.c.lpc1768.arm.o(i.mbed_uid) refers to semihost_api.c.lpc1768.arm.o(i.semihost_uid) for semihost_uid
    semihost_api.c.lpc1768.arm.o(i.semihost_open) refers to strlen.o(.text) for strlen
    semihost_api.c.lpc1768.arm.o(i.semihost_remove) refers to strlen.o(.text) for strlen
    semihost_api.c.lpc1768.arm.o(i.semihost_rename) refers to strlen.o(.text) for strlen
    fprintf.o(.text) refers (Special) to _printf_a.o(.ARM.Collect$$_printf_percent$$00000006) for _printf_a
    fprintf.o(.text) refers (Special) to _printf_c.o(.ARM.Collect$$_printf_percent$$00000013) for _printf_c
    fprintf.o(.text) refers (Special) to _printf_charcount.o(.text) for _printf_charcount
    fprintf.o(.text) refers (Special) to _printf_d.o(.ARM.Collect$$_printf_percent$$00000009) for _printf_d
    fprintf.o(.text) refers (Special) to _printf_e.o(.ARM.Collect$$_printf_percent$$00000004) for _printf_e
    fprintf.o(.text) refers (Special) to _printf_f.o(.ARM.Collect$$_printf_percent$$00000003) for _printf_f
    fprintf.o(.text) refers (Special) to printf1.o(x$fpl$printf1) for _printf_fp_dec
    fprintf.o(.text) refers (Special) to printf2.o(x$fpl$printf2) for _printf_fp_hex
    fprintf.o(.text) refers (Special) to _printf_g.o(.ARM.Collect$$_printf_percent$$00000005) for _printf_g
    fprintf.o(.text) refers (Special) to _printf_i.o(.ARM.Collect$$_printf_percent$$00000008) for _printf_i
    fprintf.o(.text) refers (Special) to _printf_dec.o(.text) for _printf_int_dec
    fprintf.o(.text) refers (Special) to _printf_l.o(.ARM.Collect$$_printf_percent$$00000012) for _printf_l
    fprintf.o(.text) refers (Special) to _printf_lc.o(.ARM.Collect$$_printf_percent$$00000015) for _printf_lc
    fprintf.o(.text) refers (Special) to _printf_ll.o(.ARM.Collect$$_printf_percent$$00000007) for _printf_ll
    fprintf.o(.text) refers (Special) to _printf_lld.o(.ARM.Collect$$_printf_percent$$0000000E) for _printf_lld
    fprintf.o(.text) refers (Special) to _printf_lli.o(.ARM.Collect$$_printf_percent$$0000000D) for _printf_lli
    fprintf.o(.text) refers (Special) to _printf_llo.o(.ARM.Collect$$_printf_percent$$00000010) for _printf_llo
    fprintf.o(.text) refers (Special) to _printf_llu.o(.ARM.Collect$$_printf_percent$$0000000F) for _printf_llu
    fprintf.o(.text) refers (Special) to _printf_llx.o(.ARM.Collect$$_printf_percent$$00000011) for _printf_llx
    fprintf.o(.text) refers (Special) to _printf_longlong_dec.o(.text) for _printf_longlong_dec
    fprintf.o(.text) refers (Special) to _printf_hex_int_ll_ptr.o(.text) for _printf_longlong_hex
    fprintf.o(.text) refers (Special) to _printf_oct_int_ll.o(.text) for _printf_longlong_oct
    fprintf.o(.text) refers (Special) to _printf_ls.o(.ARM.Collect$$_printf_percent$$00000016) for _printf_ls
    fprintf.o(.text) refers (Special) to _printf_n.o(.ARM.Collect$$_printf_percent$$00000001) for _printf_n
    fprintf.o(.text) refers (Special) to _printf_o.o(.ARM.Collect$$_printf_percent$$0000000B) for _printf_o
    fprintf.o(.text) refers (Special) to _printf_p.o(.ARM.Collect$$_printf_percent$$00000002) for _printf_p
    fprintf.o(.text) refers (Special) to _printf_percent.o(.ARM.Collect$$_printf_percent$$00000000) for _printf_percent
    fprintf.o(.text) refers (Special) to _printf_pad.o(.text) for _printf_post_padding
    fprintf.o(.text) refers (Special) to _printf_s.o(.ARM.Collect$$_printf_percent$$00000014) for _printf_s
    fprintf.o(.text) refers (Special) to _printf_str.o(.text) for _printf_str
    fprintf.o(.text) refers (Special) to _printf_truncate.o(.text) for _printf_truncate_signed
    fprintf.o(.text) refers (Special) to _printf_u.o(.ARM.Collect$$_printf_percent$$0000000A) for _printf_u
    fprintf.o(.text) refers (Special) to _printf_wctomb.o(.text) for _printf_wctomb
    fprintf.o(.text) refers (Special) to _printf_x.o(.ARM.Collect$$_printf_percent$$0000000C) for _printf_x
    fprintf.o(.text) refers to _printf_char_file.o(.text) for _printf_char_file
    sprintf.o(.text) refers (Special) to _printf_a.o(.ARM.Collect$$_printf_percent$$00000006) for _printf_a
    sprintf.o(.text) refers (Special) to _printf_c.o(.ARM.Collect$$_printf_percent$$00000013) for _printf_c
    sprintf.o(.text) refers (Special) to _printf_charcount.o(.text) for _printf_charcount
    sprintf.o(.text) refers (Special) to _printf_d.o(.ARM.Collect$$_printf_percent$$00000009) for _printf_d
    sprintf.o(.text) refers (Special) to _printf_e.o(.ARM.Collect$$_printf_percent$$00000004) for _printf_e
    sprintf.o(.text) refers (Special) to _printf_f.o(.ARM.Collect$$_printf_percent$$00000003) for _printf_f
    sprintf.o(.text) refers (Special) to printf1.o(x$fpl$printf1) for _printf_fp_dec
    sprintf.o(.text) refers (Special) to printf2.o(x$fpl$printf2) for _printf_fp_hex
    sprintf.o(.text) refers (Special) to _printf_g.o(.ARM.Collect$$_printf_percent$$00000005) for _printf_g
    sprintf.o(.text) refers (Special) to _printf_i.o(.ARM.Collect$$_printf_percent$$00000008) for _printf_i
    sprintf.o(.text) refers (Special) to _printf_dec.o(.text) for _printf_int_dec
    sprintf.o(.text) refers (Special) to _printf_l.o(.ARM.Collect$$_printf_percent$$00000012) for _printf_l
    sprintf.o(.text) refers (Special) to _printf_lc.o(.ARM.Collect$$_printf_percent$$00000015) for _printf_lc
    sprintf.o(.text) refers (Special) to _printf_ll.o(.ARM.Collect$$_printf_percent$$00000007) for _printf_ll
    sprintf.o(.text) refers (Special) to _printf_lld.o(.ARM.Collect$$_printf_percent$$0000000E) for _printf_lld
    sprintf.o(.text) refers (Special) to _printf_lli.o(.ARM.Collect$$_printf_percent$$0000000D) for _printf_lli
    sprintf.o(.text) refers (Special) to _printf_llo.o(.ARM.Collect$$_printf_percent$$00000010) for _printf_llo
    sprintf.o(.text) refers (Special) to _printf_llu.o(.ARM.Collect$$_printf_percent$$0000000F) for _printf_llu
    sprintf.o(.text) refers (Special) to _printf_llx.o(.ARM.Collect$$_printf_percent$$00000011) for _printf_llx
    sprintf.o(.text) refers (Special) to _printf_longlong_dec.o(.text) for _printf_longlong_dec
    sprintf.o(.text) refers (Special) to _printf_hex_int_ll_ptr.o(.text) for _printf_longlong_hex
    sprintf.o(.text) refers (Special) to _printf_oct_int_ll.o(.text) for _printf_longlong_oct
    sprintf.o(.text) refers (Special) to _printf_ls.o(.ARM.Collect$$_printf_percent$$00000016) for _printf_ls
    sprintf.o(.text) refers (Special) to _printf_n.o(.ARM.Collect$$_printf_percent$$00000001) for _printf_n
    sprintf.o(.text) refers (Special) to _printf_o.o(.ARM.Collect$$_printf_percent$$0000000B) for _printf_o
    sprintf.o(.text) refers (Special) to _printf_p.o(.ARM.Collect$$_printf_percent$$00000002) for _printf_p
    sprintf.o(.text) refers (Special) to _printf_percent.o(.ARM.Collect$$_printf_percent$$00000000) for _printf_percent
    sprintf.o(.text) refers (Special) to _printf_pad.o(.text) for _printf_post_padding
    sprintf.o(.text) refers (Special) to _printf_s.o(.ARM.Collect$$_printf_percent$$00000014) for _printf_s
    sprintf.o(.text) refers (Special) to _printf_str.o(.text) for _printf_str
    sprintf.o(.text) refers (Special) to _printf_truncate.o(.text) for _printf_truncate_signed
    sprintf.o(.text) refers (Special) to _printf_u.o(.ARM.Collect$$_printf_percent$$0000000A) for _printf_u
    sprintf.o(.text) refers (Special) to _printf_wctomb.o(.text) for _printf_wctomb
    sprintf.o(.text) refers (Special) to _printf_x.o(.ARM.Collect$$_printf_percent$$0000000C) for _printf_x
    sprintf.o(.text) refers to _printf_char_common.o(.text) for _printf_char_common
    sprintf.o(.text) refers to _sputc.o(.text) for _sputc
    __2printf.o(.text) refers to _printf_char_file.o(.text) for _printf_char_file
    __2printf.o(.text) refers to stdio_streams.o(.bss) for __stdout
    __2sprintf.o(.text) refers to _printf_char_common.o(.text) for _printf_char_common
    __2sprintf.o(.text) refers to _sputc.o(.text) for _sputc
    noretval__2printf.o(.text) refers to _printf_char_file.o(.text) for _printf_char_file
    noretval__2printf.o(.text) refers to stdio_streams.o(.bss) for __stdout
    noretval__2sprintf.o(.text) refers to _printf_char_common.o(.text) for _printf_char_common
    noretval__2sprintf.o(.text) refers to _sputc.o(.text) for _sputc
    __printf.o(.text) refers to _printf_percent.o(.ARM.Collect$$_printf_percent$$00000000) for _printf_percent
    _printf_str.o(.text) refers (Special) to _printf_char.o(.text) for _printf_cs_common
    _printf_str.o(.text) refers (Weak) to _printf_pad.o(.text) for _printf_pre_padding
    _printf_str.o(.text) refers (Weak) to _printf_pad.o(.text) for _printf_post_padding
    _printf_dec.o(.text) refers (Weak) to _printf_truncate.o(.text) for _printf_truncate_signed
    _printf_dec.o(.text) refers (Weak) to _printf_truncate.o(.text) for _printf_truncate_unsigned
    _printf_dec.o(.text) refers to _printf_intcommon.o(.text) for _printf_int_common
    _printf_hex_ll.o(.text) refers to _printf_intcommon.o(.text) for _printf_int_common
    _printf_hex_ll.o(.text) refers to _printf_hex_ll.o(.constdata) for .constdata
    _printf_hex_int.o(.text) refers (Weak) to _printf_truncate.o(.text) for _printf_truncate_unsigned
    _printf_hex_int.o(.text) refers to _printf_intcommon.o(.text) for _printf_int_common
    _printf_hex_int.o(.text) refers to _printf_hex_int.o(.constdata) for .constdata
    _printf_hex_int_ll.o(.text) refers to _printf_intcommon.o(.text) for _printf_int_common
    _printf_hex_int_ll.o(.text) refers (Weak) to _printf_truncate.o(.text) for _printf_truncate_unsigned
    _printf_hex_int_ll.o(.text) refers to _printf_hex_int_ll.o(.constdata) for .constdata
    _printf_hex_ptr.o(.text) refers to _printf_intcommon.o(.text) for _printf_int_common
    _printf_hex_ptr.o(.text) refers to _printf_hex_ptr.o(.constdata) for .constdata
    _printf_hex_int_ptr.o(.text) refers to _printf_intcommon.o(.text) for _printf_int_common
    _printf_hex_int_ptr.o(.text) refers (Weak) to _printf_truncate.o(.text) for _printf_truncate_unsigned
    _printf_hex_int_ptr.o(.text) refers to _printf_hex_int_ptr.o(.constdata) for .constdata
    _printf_hex_ll_ptr.o(.text) refers to _printf_intcommon.o(.text) for _printf_int_common
    _printf_hex_ll_ptr.o(.text) refers to _printf_hex_ll_ptr.o(.constdata) for .constdata
    _printf_hex_int_ll_ptr.o(.text) refers to _printf_intcommon.o(.text) for _printf_int_common
    _printf_hex_int_ll_ptr.o(.text) refers (Weak) to _printf_truncate.o(.text) for _printf_truncate_unsigned
    _printf_hex_int_ll_ptr.o(.text) refers to _printf_hex_int_ll_ptr.o(.constdata) for .constdata
    __printf_flags.o(.text) refers to _printf_percent.o(.ARM.Collect$$_printf_percent$$00000000) for _printf_percent
    __printf_flags.o(.text) refers to __printf_flags.o(.constdata) for .constdata
    __printf_ss.o(.text) refers to _printf_percent.o(.ARM.Collect$$_printf_percent$$00000000) for _printf_percent
    __printf_flags_ss.o(.text) refers to _printf_percent.o(.ARM.Collect$$_printf_percent$$00000000) for _printf_percent
    __printf_flags_ss.o(.text) refers to __printf_flags_ss.o(.constdata) for .constdata
    __printf_wp.o(.text) refers to __printf_wp.o(i._is_digit) for _is_digit
    __printf_wp.o(.text) refers to _printf_percent.o(.ARM.Collect$$_printf_percent$$00000000) for _printf_percent
    __printf_flags_wp.o(.text) refers to __printf_wp.o(i._is_digit) for _is_digit
    __printf_flags_wp.o(.text) refers to _printf_percent.o(.ARM.Collect$$_printf_percent$$00000000) for _printf_percent
    __printf_flags_wp.o(.text) refers to __printf_flags_wp.o(.constdata) for .constdata
    __printf_ss_wp.o(.text) refers to __printf_wp.o(i._is_digit) for _is_digit
    __printf_ss_wp.o(.text) refers to _printf_percent.o(.ARM.Collect$$_printf_percent$$00000000) for _printf_percent
    __printf_flags_ss_wp.o(.text) refers to __printf_wp.o(i._is_digit) for _is_digit
    __printf_flags_ss_wp.o(.text) refers to _printf_percent.o(.ARM.Collect$$_printf_percent$$00000000) for _printf_percent
    __printf_flags_ss_wp.o(.text) refers to __printf_flags_ss_wp.o(.constdata) for .constdata
    _printf_c.o(.ARM.Collect$$_printf_percent$$00000013) refers (Weak) to _printf_char.o(.text) for _printf_char
    _printf_x.o(.ARM.Collect$$_printf_percent$$0000000C) refers (Weak) to _printf_hex_int_ll_ptr.o(.text) for _printf_int_hex
    _printf_d.o(.ARM.Collect$$_printf_percent$$00000009) refers (Weak) to _printf_dec.o(.text) for _printf_int_dec
    _printf_percent.o(.ARM.Collect$$_printf_percent$$00000000) refers (Special) to _printf_percent_end.o(.ARM.Collect$$_printf_percent$$00000017) for _printf_percent_end
    sscanf.o(.text) refers (Special) to _scanf_int.o(.text) for _scanf_int
    sscanf.o(.text) refers (Special) to _scanf_longlong.o(.text) for _scanf_longlong
    sscanf.o(.text) refers (Special) to _scanf_mbtowc.o(.text) for _scanf_mbtowc
    sscanf.o(.text) refers (Special) to scanf1.o(x$fpl$scanf1) for _scanf_real
    sscanf.o(.text) refers (Special) to _scanf_str.o(.text) for _scanf_string
    sscanf.o(.text) refers (Special) to _scanf_wctomb.o(.text) for _scanf_wctomb
    sscanf.o(.text) refers (Special) to _scanf_wstr.o(.text) for _scanf_wstring
    sscanf.o(.text) refers to scanf_char.o(.text) for __vfscanf_char
    sscanf.o(.text) refers to _sgetc.o(.text) for _sgetc
    strtol.o(.text) refers to rt_ctype_table.o(.text) for __rt_ctype_table
    strtol.o(.text) refers to _strtoul.o(.text) for _strtoul
    strtol.o(.text) refers to rt_errno_addr.o(.text) for __aeabi_errno_addr
    putc.o(.text) refers to fputc.o(i.fputc) for fputc
    stdio_streams.o(.bss) refers (Special) to initio.o(.text) for _initio
    stdio_streams.o(.bss) refers (Special) to initio.o(.text) for _initio
    stdio_streams.o(.bss) refers (Special) to initio.o(.text) for _initio
    stdio_streams.o(.data) refers (Special) to initio.o(.text) for _initio
    stdio_streams.o(.data) refers (Special) to initio.o(.text) for _initio
    stdio_streams.o(.data) refers (Special) to initio.o(.text) for _initio
    rand.o(.emb_text) refers (Special) to libinit2.o(.ARM.Collect$$libinit$$0000000D) for __rt_lib_init_rand_2
    rand.o(.emb_text) refers to rand.o(.text) for _rand_init
    rand.o(.emb_text) refers to rand.o(.bss) for _random_number_data
    rand.o(.text) refers (Special) to libinit2.o(.ARM.Collect$$libinit$$0000000D) for __rt_lib_init_rand_2
    rand.o(.text) refers to rand.o(.bss) for .bss
    rand.o(.bss) refers (Special) to libinit2.o(.ARM.Collect$$libinit$$0000000D) for __rt_lib_init_rand_2
    atexit_aeabi.o(.text) refers to aeabi_atexit.o(.text) for __aeabi_atexit
    atexit_aeabi.o(.ARM.exidx) refers to atexit_aeabi.o(.text) for .text
    aeabi_atexit.o(.text) refers (Special) to cxa_finalize.o(.text) for __cxa_finalize
    aeabi_atexit.o(.text) refers to h1_alloc.o(.text) for malloc
    aeabi_atexit.o(.text) refers to rt_ddtor_pointer_addr.o(.text) for __rt_ddtor_pointer_addr
    aeabi_atexit.o(.ARM.exidx) refers (Special) to cxa_finalize.o(.text) for __cxa_finalize
    aeabi_atexit.o(.ARM.exidx) refers to aeabi_atexit.o(.text) for .text
    assert.o(.text) refers to assert_stdio.o(.text) for __assert_puts
    assert.o(.text) refers to abort.o(.text) for abort
    rt_memcpy_v6.o(.text) refers to rt_memcpy_w.o(.text) for __aeabi_memcpy4
    strncpy.o(.text) refers to rt_memclr.o(.text) for __aeabi_memclr
    localtime.o(.text) refers to localtime_internal.o(.text) for _localtime_r
    localtime.o(.text) refers to localtime.o(.bss) for .bss
    mktime.o(.text) refers to _monlen.o(.constdata) for _monlen
    __main.o(!!!main) refers to __rtentry.o(.ARM.Collect$$rtentry$$00000000) for __rt_entry
    init_aeabi.o(.emb_text) refers (Special) to libinit2.o(.ARM.Collect$$libinit$$00000031) for __rt_lib_init_cpp_2
    init_aeabi.o(.init_array) refers (Special) to libinit2.o(.ARM.Collect$$libinit$$00000031) for __rt_lib_init_cpp_2
    init_aeabi.o(.init_array) refers to init_aeabi.o(.text) for __cpp_initialize__aeabi_
    init_aeabi.o(.dummy_text) refers (Special) to libinit2.o(.ARM.Collect$$libinit$$00000031) for __rt_lib_init_cpp_2
    init_aeabi.o(.text) refers (Special) to libinit2.o(.ARM.Collect$$libinit$$00000031) for __rt_lib_init_cpp_2
    init_aeabi.o(.ARM.exidx) refers (Special) to libinit2.o(.ARM.Collect$$libinit$$00000031) for __rt_lib_init_cpp_2
    init_aeabi.o(.ARM.exidx) refers to init_aeabi.o(.text) for .text
    array_del.o(i._ZdaPv) refers to delete.o(i._ZdlPv) for operator delete (void*)
    array_del.o(.ARM.exidx) refers to array_del.o(i._ZdaPv) for i._ZdaPv
    array_new.o(i._Znaj) refers to new.o(i._Znwj) for operator new(unsigned)
    array_new.o(.ARM.exidx) refers to array_new.o(i._Znaj) for i._Znaj
    array_new.o(.ARM.exidx) refers to unwind_pr0.o(.text) for __aeabi_unwind_cpp_pr0
    array_new.o(.ARM.exidx) refers to array_new.o(.ARM.extab) for .extab._Znaj
    array_new.o(.ARM.extab) refers to arm_callunex_noexceptions.o(.text) for __cxa_call_unexpected
    array_new.o(.ARM.extab) refers to bad_alloc_dtor.o(.constdata__ZTISt9bad_alloc) for typeinfo for std::bad_alloc
    delete.o(i._ZdlPv) refers to h1_free.o(.text) for free
    delete.o(.ARM.exidx) refers to delete.o(i._ZdlPv) for i._ZdlPv
    new.o(i._Znwj) refers to rt_new_handler_addr.o(.text) for __rt_new_handler_addr
    new.o(i._Znwj) refers to h1_alloc.o(.text) for malloc
    new.o(i._Znwj) refers to arm_newhandler_noexceptions.o(.text) for __default_new_handler()
    new.o(.ARM.exidx) refers to new.o(i._Znwj) for i._Znwj
    new.o(.ARM.exidx) refers to unwind_pr0.o(.text) for __aeabi_unwind_cpp_pr0
    new.o(.ARM.exidx) refers to new.o(.ARM.extab) for .extab._Znwj
    new.o(.ARM.extab) refers to arm_callunex_noexceptions.o(.text) for __cxa_call_unexpected
    new.o(.ARM.extab) refers to bad_alloc_dtor.o(.constdata__ZTISt9bad_alloc) for typeinfo for std::bad_alloc
    pure_virt.o(i.__cxa_pure_virtual) refers to defsig_pvfn_outer.o(.text) for __rt_SIGPVFN
    pure_virt.o(.ARM.exidx) refers to pure_virt.o(i.__cxa_pure_virtual) for i.__cxa_pure_virtual
    rtti.o(i._ZN27_INTERNAL_6_rtti_c_066a44b012tbc_downcastEPvPKSt9type_infoP28a_base_class_traversal_blockPN10__cxxabiv122__base_class_type_infoE) refers to type_info_eq.o(i._ZNKSt9type_infoeqERKS_) for std::type_info::operator ==(const std::type_info&) const
    rtti.o(i._ZN27_INTERNAL_6_rtti_c_066a44b017tbc_post_downcastEPvPKSt9type_infoP28a_base_class_traversal_blockPN10__cxxabiv122__base_class_type_infoE) refers to type_info_eq.o(i._ZNKSt9type_infoeqERKS_) for std::type_info::operator ==(const std::type_info&) const
    rtti.o(i._ZN27_INTERNAL_6_rtti_c_066a44b021traverse_base_classesEPvPKSt9type_infoP28a_base_class_traversal_blockPN10__cxxabiv122__base_class_type_infoE) refers to rtti.o(i.__ARM_common_get_typeid) for __ARM_common_get_typeid
    rtti.o(i._ZN27_INTERNAL_6_rtti_c_066a44b021traverse_base_classesEPvPKSt9type_infoP28a_base_class_traversal_blockPN10__cxxabiv122__base_class_type_infoE) refers to type_info_eq.o(i._ZNKSt9type_infoeqERKS_) for std::type_info::operator ==(const std::type_info&) const
    rtti.o(i._ZN27_INTERNAL_6_rtti_c_066a44b021traverse_base_classesEPvPKSt9type_infoP28a_base_class_traversal_blockPN10__cxxabiv122__base_class_type_infoE) refers to rtti.o(i._ZN27_INTERNAL_6_rtti_c_066a44b024get_virtual_base_pointerEPvPN10__cxxabiv122__base_class_type_infoE) for [local to rtti_c]::get_virtual_base_pointer(void*, __cxxabiv1::__base_class_type_info*)
    rtti.o(i._ZN27_INTERNAL_6_rtti_c_066a44b021traverse_base_classesEPvPKSt9type_infoP28a_base_class_traversal_blockPN10__cxxabiv122__base_class_type_infoE) refers to lib_rtti_impl.o(.constdata__ZTIN10__cxxabiv120__si_class_type_infoE) for typeinfo for __cxxabiv1::__si_class_type_info
    rtti.o(i._ZN27_INTERNAL_6_rtti_c_066a44b021traverse_base_classesEPvPKSt9type_infoP28a_base_class_traversal_blockPN10__cxxabiv122__base_class_type_infoE) refers to lib_rtti_impl.o(.constdata__ZTIN10__cxxabiv121__vmi_class_type_infoE) for typeinfo for __cxxabiv1::__vmi_class_type_info
    rtti.o(i._ZN27_INTERNAL_6_rtti_c_066a44b023find_base_class_at_addrEPvS0_PKSt9type_infoS3_Pi) refers to rtti.o(i.__ARM_common_get_typeid) for __ARM_common_get_typeid
    rtti.o(i._ZN27_INTERNAL_6_rtti_c_066a44b023find_base_class_at_addrEPvS0_PKSt9type_infoS3_Pi) refers to type_info_eq.o(i._ZNKSt9type_infoeqERKS_) for std::type_info::operator ==(const std::type_info&) const
    rtti.o(i._ZN27_INTERNAL_6_rtti_c_066a44b023find_base_class_at_addrEPvS0_PKSt9type_infoS3_Pi) refers to rtti.o(i._ZN27_INTERNAL_6_rtti_c_066a44b024get_virtual_base_pointerEPvPN10__cxxabiv122__base_class_type_infoE) for [local to rtti_c]::get_virtual_base_pointer(void*, __cxxabiv1::__base_class_type_info*)
    rtti.o(i._ZN27_INTERNAL_6_rtti_c_066a44b023find_base_class_at_addrEPvS0_PKSt9type_infoS3_Pi) refers to lib_rtti_impl.o(.constdata__ZTIN10__cxxabiv120__si_class_type_infoE) for typeinfo for __cxxabiv1::__si_class_type_info
    rtti.o(i._ZN27_INTERNAL_6_rtti_c_066a44b023find_base_class_at_addrEPvS0_PKSt9type_infoS3_Pi) refers to lib_rtti_impl.o(.constdata__ZTIN10__cxxabiv121__vmi_class_type_infoE) for typeinfo for __cxxabiv1::__vmi_class_type_info
    rtti.o(i._ZN27_INTERNAL_6_rtti_c_066a44b028derived_to_base_conversion_rEPvPS0_PKSt9type_infoS4_jPiiPS4_P19a_result_virtualityS5_) refers to rtti.o(i.__ARM_common_get_typeid) for __ARM_common_get_typeid
    rtti.o(i._ZN27_INTERNAL_6_rtti_c_066a44b028derived_to_base_conversion_rEPvPS0_PKSt9type_infoS4_jPiiPS4_P19a_result_virtualityS5_) refers to type_info_eq.o(i._ZNKSt9type_infoeqERKS_) for std::type_info::operator ==(const std::type_info&) const
    rtti.o(i._ZN27_INTERNAL_6_rtti_c_066a44b028derived_to_base_conversion_rEPvPS0_PKSt9type_infoS4_jPiiPS4_P19a_result_virtualityS5_) refers to rtti.o(i._ZN27_INTERNAL_6_rtti_c_066a44b024get_virtual_base_pointerEPvPN10__cxxabiv122__base_class_type_infoE) for [local to rtti_c]::get_virtual_base_pointer(void*, __cxxabiv1::__base_class_type_info*)
    rtti.o(i._ZN27_INTERNAL_6_rtti_c_066a44b028derived_to_base_conversion_rEPvPS0_PKSt9type_infoS4_jPiiPS4_P19a_result_virtualityS5_) refers to lib_rtti_impl.o(.constdata__ZTIN10__cxxabiv120__si_class_type_infoE) for typeinfo for __cxxabiv1::__si_class_type_info
    rtti.o(i._ZN27_INTERNAL_6_rtti_c_066a44b028derived_to_base_conversion_rEPvPS0_PKSt9type_infoS4_jPiiPS4_P19a_result_virtualityS5_) refers to lib_rtti_impl.o(.constdata__ZTIN10__cxxabiv121__vmi_class_type_infoE) for typeinfo for __cxxabiv1::__vmi_class_type_info
    rtti.o(i.__derived_to_base_conversion) refers to rtti.o(i.__ARM_common_get_typeid) for __ARM_common_get_typeid
    rtti.o(i.__derived_to_base_conversion) refers to type_info_eq.o(i._ZNKSt9type_infoeqERKS_) for std::type_info::operator ==(const std::type_info&) const
    rtti.o(i.__derived_to_base_conversion) refers to rtti.o(i._ZN27_INTERNAL_6_rtti_c_066a44b028derived_to_base_conversion_rEPvPS0_PKSt9type_infoS4_jPiiPS4_P19a_result_virtualityS5_) for [local to rtti_c]::derived_to_base_conversion_r(void*, void**, const std::type_info*, const std::type_info*, unsigned, int*, int, const std::type_info**, a_result_virtuality*, int*)
    rtti.o(i.__derived_to_base_conversion) refers to lib_rtti_impl.o(.constdata__ZTIN10__cxxabiv121__vmi_class_type_infoE) for typeinfo for __cxxabiv1::__vmi_class_type_info
    rtti.o(i.__dynamic_cast) refers to rtti.o(i._ZN27_INTERNAL_6_rtti_c_066a44b021traverse_base_classesEPvPKSt9type_infoP28a_base_class_traversal_blockPN10__cxxabiv122__base_class_type_infoE) for [local to rtti_c]::traverse_base_classes(void*, const std::type_info*, a_base_class_traversal_block*, __cxxabiv1::__base_class_type_info*)
    rtti.o(i.__dynamic_cast) refers to rtti.o(i._ZN27_INTERNAL_6_rtti_c_066a44b023find_base_class_at_addrEPvS0_PKSt9type_infoS3_Pi) for [local to rtti_c]::find_base_class_at_addr(void*, void*, const std::type_info*, const std::type_info*, int*)
    rtti.o(i.__dynamic_cast) refers to type_info_eq.o(i._ZNKSt9type_infoeqERKS_) for std::type_info::operator ==(const std::type_info&) const
    rtti.o(i.__dynamic_cast) refers to rtti.o(i.__derived_to_base_conversion) for __derived_to_base_conversion
    rtti.o(i.__dynamic_cast) refers to rtti.o(i._ZN27_INTERNAL_6_rtti_c_066a44b012tbc_downcastEPvPKSt9type_infoP28a_base_class_traversal_blockPN10__cxxabiv122__base_class_type_infoE) for [local to rtti_c]::tbc_downcast(void*, const std::type_info*, a_base_class_traversal_block*, __cxxabiv1::__base_class_type_info*)
    rtti.o(i.__dynamic_cast) refers to rtti.o(i._ZN27_INTERNAL_6_rtti_c_066a44b017tbc_post_downcastEPvPKSt9type_infoP28a_base_class_traversal_blockPN10__cxxabiv122__base_class_type_infoE) for [local to rtti_c]::tbc_post_downcast(void*, const std::type_info*, a_base_class_traversal_block*, __cxxabiv1::__base_class_type_info*)
    rtti.o(.ARM.exidx) refers to rtti.o(i._ZN27_INTERNAL_6_rtti_c_066a44b021traverse_base_classesEPvPKSt9type_infoP28a_base_class_traversal_blockPN10__cxxabiv122__base_class_type_infoE) for i._ZN27_INTERNAL_6_rtti_c_066a44b021traverse_base_classesEPvPKSt9type_infoP28a_base_class_traversal_blockPN10__cxxabiv122__base_class_type_infoE
    rtti.o(.ARM.exidx) refers to unwind_pr0.o(.text) for __aeabi_unwind_cpp_pr0
    rtti.o(.ARM.exidx) refers to rtti.o(i._ZN27_INTERNAL_6_rtti_c_066a44b028derived_to_base_conversion_rEPvPS0_PKSt9type_infoS4_jPiiPS4_P19a_result_virtualityS5_) for i._ZN27_INTERNAL_6_rtti_c_066a44b028derived_to_base_conversion_rEPvPS0_PKSt9type_infoS4_jPiiPS4_P19a_result_virtualityS5_
    rtti.o(.ARM.exidx) refers to unwind_pr0.o(.text) for __aeabi_unwind_cpp_pr0
    rtti.o(.ARM.exidx) refers to rtti.o(i.__derived_to_base_conversion) for i.__derived_to_base_conversion
    rtti.o(.ARM.exidx) refers to unwind_pr0.o(.text) for __aeabi_unwind_cpp_pr0
    rtti.o(.ARM.exidx) refers to rtti.o(i._ZN27_INTERNAL_6_rtti_c_066a44b023find_base_class_at_addrEPvS0_PKSt9type_infoS3_Pi) for i._ZN27_INTERNAL_6_rtti_c_066a44b023find_base_class_at_addrEPvS0_PKSt9type_infoS3_Pi
    rtti.o(.ARM.exidx) refers to unwind_pr0.o(.text) for __aeabi_unwind_cpp_pr0
    rtti.o(.ARM.exidx) refers to rtti.o(i._ZN27_INTERNAL_6_rtti_c_066a44b012tbc_downcastEPvPKSt9type_infoP28a_base_class_traversal_blockPN10__cxxabiv122__base_class_type_infoE) for i._ZN27_INTERNAL_6_rtti_c_066a44b012tbc_downcastEPvPKSt9type_infoP28a_base_class_traversal_blockPN10__cxxabiv122__base_class_type_infoE
    rtti.o(.ARM.exidx) refers to unwind_pr0.o(.text) for __aeabi_unwind_cpp_pr0
    rtti.o(.ARM.exidx) refers to rtti.o(i._ZN27_INTERNAL_6_rtti_c_066a44b017tbc_post_downcastEPvPKSt9type_infoP28a_base_class_traversal_blockPN10__cxxabiv122__base_class_type_infoE) for i._ZN27_INTERNAL_6_rtti_c_066a44b017tbc_post_downcastEPvPKSt9type_infoP28a_base_class_traversal_blockPN10__cxxabiv122__base_class_type_infoE
    rtti.o(.ARM.exidx) refers to unwind_pr0.o(.text) for __aeabi_unwind_cpp_pr0
    rtti.o(.ARM.exidx) refers to rtti.o(i.__dynamic_cast) for i.__dynamic_cast
    rtti.o(.ARM.exidx) refers to unwind_pr0.o(.text) for __aeabi_unwind_cpp_pr0
    rtti.o(.ARM.exidx) refers to rtti.o(i._ZN27_INTERNAL_6_rtti_c_066a44b024get_virtual_base_pointerEPvPN10__cxxabiv122__base_class_type_infoE) for i._ZN27_INTERNAL_6_rtti_c_066a44b024get_virtual_base_pointerEPvPN10__cxxabiv122__base_class_type_infoE
    lib_rtti_impl.o(i._ZN10__cxxabiv116__enum_type_infoD0Ev) refers to lib_rtti_impl.o(i._ZN10__cxxabiv116__enum_type_infoD1Ev) for __cxxabiv1::__enum_type_info::~__enum_type_info()
    lib_rtti_impl.o(i._ZN10__cxxabiv117__array_type_infoD0Ev) refers to lib_rtti_impl.o(i._ZN10__cxxabiv117__array_type_infoD1Ev) for __cxxabiv1::__array_type_info::~__array_type_info()
    lib_rtti_impl.o(i._ZN10__cxxabiv117__class_type_infoD0Ev) refers to lib_rtti_impl.o(i._ZN10__cxxabiv117__class_type_infoD1Ev) for __cxxabiv1::__class_type_info::~__class_type_info()
    lib_rtti_impl.o(i._ZN10__cxxabiv117__pbase_type_infoD0Ev) refers to lib_rtti_impl.o(i._ZN10__cxxabiv117__pbase_type_infoD1Ev) for __cxxabiv1::__pbase_type_info::~__pbase_type_info()
    lib_rtti_impl.o(i._ZN10__cxxabiv119__pointer_type_infoD0Ev) refers to lib_rtti_impl.o(i._ZN10__cxxabiv119__pointer_type_infoD1Ev) for __cxxabiv1::__pointer_type_info::~__pointer_type_info()
    lib_rtti_impl.o(i._ZN10__cxxabiv119__pointer_type_infoD1Ev) refers to lib_rtti_impl.o(i._ZN10__cxxabiv117__pbase_type_infoD1Ev) for __cxxabiv1::__pbase_type_info::~__pbase_type_info()
    lib_rtti_impl.o(i._ZN10__cxxabiv120__function_type_infoD0Ev) refers to lib_rtti_impl.o(i._ZN10__cxxabiv120__function_type_infoD1Ev) for __cxxabiv1::__function_type_info::~__function_type_info()
    lib_rtti_impl.o(i._ZN10__cxxabiv120__si_class_type_infoD0Ev) refers to lib_rtti_impl.o(i._ZN10__cxxabiv120__si_class_type_infoD1Ev) for __cxxabiv1::__si_class_type_info::~__si_class_type_info()
    lib_rtti_impl.o(i._ZN10__cxxabiv120__si_class_type_infoD1Ev) refers to lib_rtti_impl.o(i._ZN10__cxxabiv117__class_type_infoD1Ev) for __cxxabiv1::__class_type_info::~__class_type_info()
    lib_rtti_impl.o(i._ZN10__cxxabiv121__vmi_class_type_infoD0Ev) refers to lib_rtti_impl.o(i._ZN10__cxxabiv121__vmi_class_type_infoD1Ev) for __cxxabiv1::__vmi_class_type_info::~__vmi_class_type_info()
    lib_rtti_impl.o(i._ZN10__cxxabiv121__vmi_class_type_infoD1Ev) refers to lib_rtti_impl.o(i._ZN10__cxxabiv117__class_type_infoD1Ev) for __cxxabiv1::__class_type_info::~__class_type_info()
    lib_rtti_impl.o(i._ZN10__cxxabiv123__fundamental_type_infoD0Ev) refers to lib_rtti_impl.o(i._ZN10__cxxabiv123__fundamental_type_infoD1Ev) for __cxxabiv1::__fundamental_type_info::~__fundamental_type_info()
    lib_rtti_impl.o(i._ZN10__cxxabiv129__pointer_to_member_type_infoD0Ev) refers to lib_rtti_impl.o(i._ZN10__cxxabiv129__pointer_to_member_type_infoD1Ev) for __cxxabiv1::__pointer_to_member_type_info::~__pointer_to_member_type_info()
    lib_rtti_impl.o(i._ZN10__cxxabiv129__pointer_to_member_type_infoD1Ev) refers to lib_rtti_impl.o(i._ZN10__cxxabiv117__pbase_type_infoD1Ev) for __cxxabiv1::__pbase_type_info::~__pbase_type_info()
    lib_rtti_impl.o(.ARM.exidx) refers to lib_rtti_impl.o(i._ZN10__cxxabiv123__fundamental_type_infoD1Ev) for i._ZN10__cxxabiv123__fundamental_type_infoD1Ev
    lib_rtti_impl.o(.ARM.exidx) refers to lib_rtti_impl.o(i._ZN10__cxxabiv123__fundamental_type_infoD0Ev) for i._ZN10__cxxabiv123__fundamental_type_infoD0Ev
    lib_rtti_impl.o(.ARM.exidx) refers to lib_rtti_impl.o(i._ZN10__cxxabiv117__array_type_infoD1Ev) for i._ZN10__cxxabiv117__array_type_infoD1Ev
    lib_rtti_impl.o(.ARM.exidx) refers to lib_rtti_impl.o(i._ZN10__cxxabiv117__array_type_infoD0Ev) for i._ZN10__cxxabiv117__array_type_infoD0Ev
    lib_rtti_impl.o(.ARM.exidx) refers to lib_rtti_impl.o(i._ZN10__cxxabiv120__function_type_infoD1Ev) for i._ZN10__cxxabiv120__function_type_infoD1Ev
    lib_rtti_impl.o(.ARM.exidx) refers to lib_rtti_impl.o(i._ZN10__cxxabiv120__function_type_infoD0Ev) for i._ZN10__cxxabiv120__function_type_infoD0Ev
    lib_rtti_impl.o(.ARM.exidx) refers to lib_rtti_impl.o(i._ZN10__cxxabiv116__enum_type_infoD1Ev) for i._ZN10__cxxabiv116__enum_type_infoD1Ev
    lib_rtti_impl.o(.ARM.exidx) refers to lib_rtti_impl.o(i._ZN10__cxxabiv116__enum_type_infoD0Ev) for i._ZN10__cxxabiv116__enum_type_infoD0Ev
    lib_rtti_impl.o(.ARM.exidx) refers to lib_rtti_impl.o(i._ZN10__cxxabiv117__class_type_infoD1Ev) for i._ZN10__cxxabiv117__class_type_infoD1Ev
    lib_rtti_impl.o(.ARM.exidx) refers to lib_rtti_impl.o(i._ZN10__cxxabiv117__class_type_infoD0Ev) for i._ZN10__cxxabiv117__class_type_infoD0Ev
    lib_rtti_impl.o(.ARM.exidx) refers to lib_rtti_impl.o(i._ZN10__cxxabiv120__si_class_type_infoD1Ev) for i._ZN10__cxxabiv120__si_class_type_infoD1Ev
    lib_rtti_impl.o(.ARM.exidx) refers to lib_rtti_impl.o(i._ZN10__cxxabiv120__si_class_type_infoD0Ev) for i._ZN10__cxxabiv120__si_class_type_infoD0Ev
    lib_rtti_impl.o(.ARM.exidx) refers to lib_rtti_impl.o(i._ZN10__cxxabiv121__vmi_class_type_infoD1Ev) for i._ZN10__cxxabiv121__vmi_class_type_infoD1Ev
    lib_rtti_impl.o(.ARM.exidx) refers to lib_rtti_impl.o(i._ZN10__cxxabiv121__vmi_class_type_infoD0Ev) for i._ZN10__cxxabiv121__vmi_class_type_infoD0Ev
    lib_rtti_impl.o(.ARM.exidx) refers to lib_rtti_impl.o(i._ZN10__cxxabiv117__pbase_type_infoD1Ev) for i._ZN10__cxxabiv117__pbase_type_infoD1Ev
    lib_rtti_impl.o(.ARM.exidx) refers to lib_rtti_impl.o(i._ZN10__cxxabiv117__pbase_type_infoD0Ev) for i._ZN10__cxxabiv117__pbase_type_infoD0Ev
    lib_rtti_impl.o(.ARM.exidx) refers to lib_rtti_impl.o(i._ZN10__cxxabiv119__pointer_type_infoD1Ev) for i._ZN10__cxxabiv119__pointer_type_infoD1Ev
    lib_rtti_impl.o(.ARM.exidx) refers to lib_rtti_impl.o(i._ZN10__cxxabiv119__pointer_type_infoD0Ev) for i._ZN10__cxxabiv119__pointer_type_infoD0Ev
    lib_rtti_impl.o(.ARM.exidx) refers to lib_rtti_impl.o(i._ZN10__cxxabiv129__pointer_to_member_type_infoD1Ev) for i._ZN10__cxxabiv129__pointer_to_member_type_infoD1Ev
    lib_rtti_impl.o(.ARM.exidx) refers to lib_rtti_impl.o(i._ZN10__cxxabiv129__pointer_to_member_type_infoD0Ev) for i._ZN10__cxxabiv129__pointer_to_member_type_infoD0Ev
    dfix.o(x$fpl$dfix) refers (Special) to usenofp.o(x$fpl$usenofp) for __I$use$fp
    dfix.o(x$fpl$dfix) refers to dnaninf.o(x$fpl$dnaninf) for __fpl_dnaninf
    dfix.o(x$fpl$dfixr) refers (Special) to usenofp.o(x$fpl$usenofp) for __I$use$fp
    dfix.o(x$fpl$dfixr) refers to dnaninf.o(x$fpl$dnaninf) for __fpl_dnaninf
    dmul.o(x$fpl$dmul) refers (Special) to usenofp.o(x$fpl$usenofp) for __I$use$fp
    dmul.o(x$fpl$dmul) refers to dretinf.o(x$fpl$dretinf) for __fpl_dretinf
    dmul.o(x$fpl$dmul) refers to dnaninf.o(x$fpl$dnaninf) for __fpl_dnaninf
    f2d.o(x$fpl$f2d) refers (Special) to usenofp.o(x$fpl$usenofp) for __I$use$fp
    f2d.o(x$fpl$f2d) refers to fnaninf.o(x$fpl$fnaninf) for __fpl_fnaninf
    f2d.o(x$fpl$f2d) refers to dretinf.o(x$fpl$dretinf) for __fpl_dretinf
    faddsub_clz.o(x$fpl$fadd) refers (Special) to usenofp.o(x$fpl$usenofp) for __I$use$fp
    faddsub_clz.o(x$fpl$fadd) refers to faddsub_clz.o(x$fpl$fsub) for _fsub1
    faddsub_clz.o(x$fpl$fadd) refers to fretinf.o(x$fpl$fretinf) for __fpl_fretinf
    faddsub_clz.o(x$fpl$fadd) refers to fnaninf.o(x$fpl$fnaninf) for __fpl_fnaninf
    faddsub_clz.o(x$fpl$frsb) refers (Special) to usenofp.o(x$fpl$usenofp) for __I$use$fp
    faddsub_clz.o(x$fpl$frsb) refers to faddsub_clz.o(x$fpl$fadd) for _fadd1
    faddsub_clz.o(x$fpl$frsb) refers to faddsub_clz.o(x$fpl$fsub) for _fsub1
    faddsub_clz.o(x$fpl$fsub) refers (Special) to usenofp.o(x$fpl$usenofp) for __I$use$fp
    faddsub_clz.o(x$fpl$fsub) refers to faddsub_clz.o(x$fpl$fadd) for _fadd1
    faddsub_clz.o(x$fpl$fsub) refers to fnaninf.o(x$fpl$fnaninf) for __fpl_fnaninf
    fdiv.o(x$fpl$frdiv) refers (Special) to usenofp.o(x$fpl$usenofp) for __I$use$fp
    fdiv.o(x$fpl$frdiv) refers to fdiv.o(x$fpl$fdiv) for _fdiv1
    fdiv.o(x$fpl$fdiv) refers (Special) to usenofp.o(x$fpl$usenofp) for __I$use$fp
    fdiv.o(x$fpl$fdiv) refers to fretinf.o(x$fpl$fretinf) for __fpl_fretinf
    fdiv.o(x$fpl$fdiv) refers to fnaninf.o(x$fpl$fnaninf) for __fpl_fnaninf
    ffix.o(x$fpl$ffix) refers (Special) to usenofp.o(x$fpl$usenofp) for __I$use$fp
    ffix.o(x$fpl$ffix) refers to fnaninf.o(x$fpl$fnaninf) for __fpl_fnaninf
    ffix.o(x$fpl$ffixr) refers (Special) to usenofp.o(x$fpl$usenofp) for __I$use$fp
    ffix.o(x$fpl$ffixr) refers to fnaninf.o(x$fpl$fnaninf) for __fpl_fnaninf
    ffixu.o(x$fpl$ffixu) refers (Special) to usenofp.o(x$fpl$usenofp) for __I$use$fp
    ffixu.o(x$fpl$ffixu) refers to fnaninf.o(x$fpl$fnaninf) for __fpl_fnaninf
    ffixu.o(x$fpl$ffixur) refers (Special) to usenofp.o(x$fpl$usenofp) for __I$use$fp
    ffixu.o(x$fpl$ffixur) refers to fnaninf.o(x$fpl$fnaninf) for __fpl_fnaninf
    fflt_clz.o(x$fpl$ffltu) refers (Special) to usenofp.o(x$fpl$usenofp) for __I$use$fp
    fflt_clz.o(x$fpl$fflt) refers (Special) to usenofp.o(x$fpl$usenofp) for __I$use$fp
    fflt_clz.o(x$fpl$ffltn) refers (Special) to usenofp.o(x$fpl$usenofp) for __I$use$fp
    fmul.o(x$fpl$fmul) refers (Special) to usenofp.o(x$fpl$usenofp) for __I$use$fp
    fmul.o(x$fpl$fmul) refers to fretinf.o(x$fpl$fretinf) for __fpl_fretinf
    fmul.o(x$fpl$fmul) refers to fnaninf.o(x$fpl$fnaninf) for __fpl_fnaninf
    scalbnf.o(i.__softfp_scalbnf) refers (Special) to usenofp.o(x$fpl$usenofp) for __I$use$fp
    scalbnf.o(i.__softfp_scalbnf) refers to scalbnf.o(x$fpl$scalbnf) for __ARM_scalbnf
    scalbnf.o(i.__softfp_scalbnf) refers to _rserrno.o(.text) for __set_errno
    scalbnf.o(i.__softfp_scalbnf) refers to funder.o(i.__mathlib_flt_underflow) for __mathlib_flt_underflow
    scalbnf.o(i.__softfp_scalbnf) refers to funder.o(i.__mathlib_flt_overflow) for __mathlib_flt_overflow
    scalbnf.o(i.scalbnf) refers (Special) to usenofp.o(x$fpl$usenofp) for __I$use$fp
    scalbnf.o(i.scalbnf) refers to scalbnf.o(x$fpl$scalbnf) for __ARM_scalbnf
    scalbnf.o(i.scalbnf) refers to _rserrno.o(.text) for __set_errno
    scalbnf.o(i.scalbnf) refers to funder.o(i.__mathlib_flt_underflow) for __mathlib_flt_underflow
    scalbnf.o(i.scalbnf) refers to funder.o(i.__mathlib_flt_overflow) for __mathlib_flt_overflow
    scalbnf_x.o(i.____softfp_scalbnf$lsc) refers (Special) to usenofp.o(x$fpl$usenofp) for __I$use$fp
    scalbnf_x.o(i.____softfp_scalbnf$lsc) refers to scalbnf.o(x$fpl$scalbnf) for __ARM_scalbnf
    scalbnf_x.o(i.__scalbnf$lsc) refers (Special) to usenofp.o(x$fpl$usenofp) for __I$use$fp
    scalbnf_x.o(i.__scalbnf$lsc) refers to scalbnf.o(x$fpl$scalbnf) for __ARM_scalbnf
    __rtentry.o(.ARM.Collect$$rtentry$$00000000) refers (Special) to __rtentry2.o(.ARM.Collect$$rtentry$$0000000A) for __rt_entry_li
    __rtentry.o(.ARM.Collect$$rtentry$$00000000) refers (Special) to __rtentry2.o(.ARM.Collect$$rtentry$$0000000D) for __rt_entry_main
    __rtentry.o(.ARM.Collect$$rtentry$$00000000) refers (Special) to __rtentry2.o(.ARM.Collect$$rtentry$$0000000C) for __rt_entry_postli_1
    __rtentry.o(.ARM.Collect$$rtentry$$00000000) refers (Special) to __rtentry2.o(.ARM.Collect$$rtentry$$00000009) for __rt_entry_postsh_1
    __rtentry.o(.ARM.Collect$$rtentry$$00000000) refers (Special) to __rtentry2.o(.ARM.Collect$$rtentry$$00000002) for __rt_entry_presh_1
    __rtentry.o(.ARM.Collect$$rtentry$$00000000) refers (Special) to __rtentry4.o(.ARM.Collect$$rtentry$$00000004) for __rt_entry_sh
    rt_ctype_table.o(.text) refers to rt_locale.o(.text) for __rt_locale
    rt_ctype_table.o(.text) refers to lc_ctype_c.o(locale$$code) for _get_lc_ctype
    aeabi_ldiv0_sigfpe.o(.text) refers to rt_div0.o(.text) for __rt_div0
    rt_new_handler_addr.o(.text) refers to rt_new_handler_addr.o(.bss) for __rt_new_handler_addr_data
    rt_new_handler_addr_intlibspace.o(.text) refers to libspace.o(.bss) for __libspace_start
    rt_ddtor_pointer_addr.o(.text) refers to rt_ddtor_pointer_addr.o(.bss) for __rt_ddtor_pointer_addr_data
    rt_ddtor_pointer_addr_intlibspace.o(.text) refers to libspace.o(.bss) for __libspace_start
    rt_errno_addr.o(.text) refers to rt_errno_addr.o(.bss) for __aeabi_errno_addr_data
    rt_errno_addr_intlibspace.o(.text) refers to libspace.o(.bss) for __libspace_start
    malloc.o(.text) refers (Special) to hguard.o(.text) for __heap$guard
    malloc.o(.text) refers (Special) to init_alloc.o(.text) for _init_alloc
    malloc.o(.text) refers to rt_heap_descriptor.o(.text) for __rt_heap_descriptor
    malloc.o(.text) refers to heapstubs.o(.text) for __Heap_Alloc
    free.o(.text) refers (Special) to hguard.o(.text) for __heap$guard
    free.o(.text) refers to rt_heap_descriptor.o(.text) for __rt_heap_descriptor
    free.o(.text) refers to heapstubs.o(.text) for __Heap_Free
    h1_alloc.o(.text) refers (Special) to h1_init.o(.text) for __Heap_Initialize
    h1_alloc.o(.text) refers to rt_heap_descriptor.o(.text) for __rt_heap_descriptor
    h1_alloc.o(.text) refers to init_alloc.o(.text) for __Heap_Full
    h1_free.o(.text) refers to rt_heap_descriptor.o(.text) for __rt_heap_descriptor
    h1_alloc_mt.o(.text) refers (Special) to h1_init.o(.text) for __Heap_Initialize
    h1_alloc_mt.o(.text) refers to init_alloc.o(.text) for __Heap_Full
    h1_alloc_mt.o(.text) refers to rt_heap_descriptor.o(.text) for __rt_heap_descriptor
    h1_free_mt.o(.text) refers to rt_heap_descriptor.o(.text) for __rt_heap_descriptor
    heap2.o(i._FDIterate) refers to heap2.o(.conststring) for .conststring
    heap2.o(i.___Heap_ProvideMemory$realtime) refers to fdtree.o(i._FDTree_Delete) for _FDTree_Delete
    heap2.o(i.___Heap_ProvideMemory$realtime) refers to fdtree.o(i._FDTree_Insert) for _FDTree_Insert
    heap2.o(i.___Heap_Stats$realtime) refers to heap2.o(i._Heap2_StatsIterate) for _Heap2_StatsIterate
    heap2.o(i.___Heap_Valid$realtime) refers to heap2.o(i._FDIterate) for _FDIterate
    heap2.o(i.___Heap_Valid$realtime) refers to heap2.o(.conststring) for .conststring
    heap2.o(i._free$realtime) refers to rt_heap_descriptor.o(.text) for __rt_heap_descriptor
    heap2.o(i._free$realtime) refers to fdtree.o(i._FDTree_Delete) for _FDTree_Delete
    heap2.o(i._free$realtime) refers to fdtree.o(i._FDTree_Insert) for _FDTree_Insert
    heap2.o(i._malloc$realtime) refers to rt_heap_descriptor.o(.text) for __rt_heap_descriptor
    heap2.o(i._malloc$realtime) refers to fdtree.o(i._FDTree_FindFirst) for _FDTree_FindFirst
    heap2.o(i._malloc$realtime) refers to init_alloc.o(.text) for __Heap_Full
    heap2.o(i._malloc$realtime) refers to fdtree.o(i._FDTree_RemoveNode) for _FDTree_RemoveNode
    heap2.o(i._malloc$realtime) refers to fdtree.o(i._FDTree_Insert) for _FDTree_Insert
    heap2.o(i._posix_memalign$realtime) refers to rt_heap_descriptor.o(.text) for __rt_heap_descriptor
    heap2.o(i._posix_memalign$realtime) refers to fdtree.o(i._FDTree_FindFirst) for _FDTree_FindFirst
    heap2.o(i._posix_memalign$realtime) refers to init_alloc.o(.text) for __Heap_Full
    heap2.o(i._posix_memalign$realtime) refers to fdtree.o(i._FDTree_RemoveNode) for _FDTree_RemoveNode
    heap2.o(i._posix_memalign$realtime) refers to fdtree.o(i._FDTree_Insert) for _FDTree_Insert
    heap2.o(i._realloc$realtime) refers to rt_heap_descriptor.o(.text) for __rt_heap_descriptor
    heap2.o(i._realloc$realtime) refers to fdtree.o(i._FDTree_Insert) for _FDTree_Insert
    heap2.o(i._realloc$realtime) refers to h1_free.o(.text) for free
    heap2.o(i._realloc$realtime) refers to h1_alloc.o(.text) for malloc
    heap2.o(i._realloc$realtime) refers to fdtree.o(i._FDTree_Delete) for _FDTree_Delete
    heap2.o(i._realloc$realtime) refers to rt_memcpy_w.o(.text) for __aeabi_memcpy4
    heap2mt.o(i._FDIterate) refers to heap2mt.o(.conststring) for .conststring
    heap2mt.o(i.___Heap_Initialize$realtime$concurrent) refers to mutex_dummy.o(.text) for _mutex_initialize
    heap2mt.o(i.___Heap_ProvideMemory$realtime$concurrent) refers to fdtree.o(i._FDTree_Delete) for _FDTree_Delete
    heap2mt.o(i.___Heap_ProvideMemory$realtime$concurrent) refers to fdtree.o(i._FDTree_Insert) for _FDTree_Insert
    heap2mt.o(i.___Heap_Stats$realtime$concurrent) refers to heap2mt.o(i._Heap2_StatsIterate) for _Heap2_StatsIterate
    heap2mt.o(i.___Heap_Valid$realtime$concurrent) refers to heap2mt.o(i._FDIterate) for _FDIterate
    heap2mt.o(i.___Heap_Valid$realtime$concurrent) refers to heap2mt.o(.conststring) for .conststring
    heap2mt.o(i._free$realtime$concurrent) refers to rt_heap_descriptor.o(.text) for __rt_heap_descriptor
    heap2mt.o(i._free$realtime$concurrent) refers to fdtree.o(i._FDTree_Delete) for _FDTree_Delete
    heap2mt.o(i._free$realtime$concurrent) refers to fdtree.o(i._FDTree_Insert) for _FDTree_Insert
    heap2mt.o(i._malloc$realtime$concurrent) refers to rt_heap_descriptor.o(.text) for __rt_heap_descriptor
    heap2mt.o(i._malloc$realtime$concurrent) refers to fdtree.o(i._FDTree_FindFirst) for _FDTree_FindFirst
    heap2mt.o(i._malloc$realtime$concurrent) refers to init_alloc.o(.text) for __Heap_Full
    heap2mt.o(i._malloc$realtime$concurrent) refers to fdtree.o(i._FDTree_RemoveNode) for _FDTree_RemoveNode
    heap2mt.o(i._malloc$realtime$concurrent) refers to fdtree.o(i._FDTree_Insert) for _FDTree_Insert
    heap2mt.o(i._posix_memalign$realtime$concurrent) refers to rt_heap_descriptor.o(.text) for __rt_heap_descriptor
    heap2mt.o(i._posix_memalign$realtime$concurrent) refers to fdtree.o(i._FDTree_FindFirst) for _FDTree_FindFirst
    heap2mt.o(i._posix_memalign$realtime$concurrent) refers to init_alloc.o(.text) for __Heap_Full
    heap2mt.o(i._posix_memalign$realtime$concurrent) refers to fdtree.o(i._FDTree_RemoveNode) for _FDTree_RemoveNode
    heap2mt.o(i._posix_memalign$realtime$concurrent) refers to fdtree.o(i._FDTree_Insert) for _FDTree_Insert
    heap2mt.o(i._realloc$realtime$concurrent) refers to rt_heap_descriptor.o(.text) for __rt_heap_descriptor
    heap2mt.o(i._realloc$realtime$concurrent) refers to fdtree.o(i._FDTree_Insert) for _FDTree_Insert
    heap2mt.o(i._realloc$realtime$concurrent) refers to h1_free.o(.text) for free
    heap2mt.o(i._realloc$realtime$concurrent) refers to h1_alloc.o(.text) for malloc
    heap2mt.o(i._realloc$realtime$concurrent) refers to fdtree.o(i._FDTree_Delete) for _FDTree_Delete
    heap2mt.o(i._realloc$realtime$concurrent) refers to rt_memcpy_w.o(.text) for __aeabi_memcpy4
    _rserrno.o(.text) refers to rt_errno_addr.o(.text) for __aeabi_errno_addr
    _printf_intcommon.o(.text) refers (Weak) to _printf_pad.o(.text) for _printf_pre_padding
    _printf_intcommon.o(.text) refers (Weak) to _printf_pad.o(.text) for _printf_pre_padding
    _printf_intcommon.o(.text) refers (Weak) to _printf_pad.o(.text) for _printf_post_padding
    _printf_char_common.o(.text) refers to __printf_flags_ss_wp.o(.text) for __printf
    _printf_char.o(.text) refers (Weak) to _printf_str.o(.text) for _printf_str
    _printf_char_file.o(.text) refers to _printf_char_common.o(.text) for _printf_char_common
    _printf_char_file.o(.text) refers to ferror.o(.text) for ferror
    _printf_char_file.o(.text) refers to fputc.o(i.fputc) for fputc
    _printf_wctomb.o(.text) refers (Special) to _printf_wchar.o(.text) for _printf_lcs_common
    _printf_wctomb.o(.text) refers to _wcrtomb.o(.text) for _wcrtomb
    _printf_wctomb.o(.text) refers (Weak) to _printf_pad.o(.text) for _printf_pre_padding
    _printf_wctomb.o(.text) refers (Weak) to _printf_pad.o(.text) for _printf_post_padding
    _printf_wctomb.o(.text) refers to _printf_wctomb.o(.constdata) for .constdata
    _printf_wctomb.o(.constdata) refers (Special) to _printf_wchar.o(.text) for _printf_lcs_common
    _printf_longlong_dec.o(.text) refers to lludiv10.o(.text) for _ll_udiv10
    _printf_longlong_dec.o(.text) refers to _printf_intcommon.o(.text) for _printf_int_common
    _printf_oct_ll.o(.text) refers to _printf_intcommon.o(.text) for _printf_int_common
    _printf_oct_int.o(.text) refers (Weak) to _printf_truncate.o(.text) for _printf_truncate_unsigned
    _printf_oct_int.o(.text) refers to _printf_intcommon.o(.text) for _printf_int_common
    _printf_oct_int_ll.o(.text) refers to _printf_intcommon.o(.text) for _printf_int_common
    _printf_oct_int_ll.o(.text) refers (Weak) to _printf_truncate.o(.text) for _printf_truncate_unsigned
    _printf_s.o(.ARM.Collect$$_printf_percent$$00000014) refers (Weak) to _printf_char.o(.text) for _printf_string
    _printf_n.o(.ARM.Collect$$_printf_percent$$00000001) refers (Weak) to _printf_charcount.o(.text) for _printf_charcount
    _printf_p.o(.ARM.Collect$$_printf_percent$$00000002) refers (Weak) to _printf_hex_int_ll_ptr.o(.text) for _printf_hex_ptr
    _printf_o.o(.ARM.Collect$$_printf_percent$$0000000B) refers (Weak) to _printf_oct_int_ll.o(.text) for _printf_int_oct
    _printf_i.o(.ARM.Collect$$_printf_percent$$00000008) refers (Weak) to _printf_dec.o(.text) for _printf_int_dec
    _printf_u.o(.ARM.Collect$$_printf_percent$$0000000A) refers (Weak) to _printf_dec.o(.text) for _printf_int_dec
    _printf_f.o(.ARM.Collect$$_printf_percent$$00000003) refers (Weak) to printf1.o(x$fpl$printf1) for _printf_fp_dec
    _printf_e.o(.ARM.Collect$$_printf_percent$$00000004) refers (Weak) to printf1.o(x$fpl$printf1) for _printf_fp_dec
    _printf_g.o(.ARM.Collect$$_printf_percent$$00000005) refers (Weak) to printf1.o(x$fpl$printf1) for _printf_fp_dec
    _printf_a.o(.ARM.Collect$$_printf_percent$$00000006) refers (Weak) to printf2.o(x$fpl$printf2) for _printf_fp_hex
    _printf_lli.o(.ARM.Collect$$_printf_percent$$0000000D) refers (Special) to _printf_ll.o(.ARM.Collect$$_printf_percent$$00000007) for _printf_ll
    _printf_lli.o(.ARM.Collect$$_printf_percent$$0000000D) refers (Weak) to _printf_longlong_dec.o(.text) for _printf_longlong_dec
    _printf_lld.o(.ARM.Collect$$_printf_percent$$0000000E) refers (Special) to _printf_ll.o(.ARM.Collect$$_printf_percent$$00000007) for _printf_ll
    _printf_lld.o(.ARM.Collect$$_printf_percent$$0000000E) refers (Weak) to _printf_longlong_dec.o(.text) for _printf_longlong_dec
    _printf_llu.o(.ARM.Collect$$_printf_percent$$0000000F) refers (Special) to _printf_ll.o(.ARM.Collect$$_printf_percent$$00000007) for _printf_ll
    _printf_llu.o(.ARM.Collect$$_printf_percent$$0000000F) refers (Weak) to _printf_longlong_dec.o(.text) for _printf_longlong_dec
    _printf_lc.o(.ARM.Collect$$_printf_percent$$00000015) refers (Special) to _printf_l.o(.ARM.Collect$$_printf_percent$$00000012) for _printf_l
    _printf_lc.o(.ARM.Collect$$_printf_percent$$00000015) refers (Weak) to _printf_wchar.o(.text) for _printf_wchar
    _printf_ls.o(.ARM.Collect$$_printf_percent$$00000016) refers (Special) to _printf_l.o(.ARM.Collect$$_printf_percent$$00000012) for _printf_l
    _printf_ls.o(.ARM.Collect$$_printf_percent$$00000016) refers (Weak) to _printf_wchar.o(.text) for _printf_wstring
    _printf_llo.o(.ARM.Collect$$_printf_percent$$00000010) refers (Special) to _printf_ll.o(.ARM.Collect$$_printf_percent$$00000007) for _printf_ll
    _printf_llo.o(.ARM.Collect$$_printf_percent$$00000010) refers (Weak) to _printf_oct_int_ll.o(.text) for _printf_ll_oct
    _printf_llx.o(.ARM.Collect$$_printf_percent$$00000011) refers (Special) to _printf_ll.o(.ARM.Collect$$_printf_percent$$00000007) for _printf_ll
    _printf_llx.o(.ARM.Collect$$_printf_percent$$00000011) refers (Weak) to _printf_hex_int_ll_ptr.o(.text) for _printf_ll_hex
    _scanf_longlong.o(.text) refers to _chval.o(.text) for _chval
    _scanf_int.o(.text) refers to _chval.o(.text) for _chval
    scanf_char.o(.text) refers to _scanf.o(.text) for __vfscanf
    scanf_char.o(.text) refers to isspace.o(.text) for isspace
    _strtoul.o(.text) refers to _chval.o(.text) for _chval
    _strtoul.o(.text) refers to rt_errno_addr.o(.text) for __aeabi_errno_addr
    _scanf_mbtowc.o(.text) refers to _mbrtowc.o(.text) for _mbrtowc
    _scanf_wctomb.o(.text) refers to _wcrtomb.o(.text) for _wcrtomb
    _scanf_wctomb.o(.text) refers to _scanf_wcharmap.o(.text) for _scanf_wcharmap
    _scanf_wstr.o(.text) refers to _scanf_wcharmap.o(.text) for _scanf_wcharmap
    fputc.o(i.fputc) refers to flsbuf.o(.text) for __flsbuf_byte
    initio.o(.text) refers (Special) to libinit2.o(.ARM.Collect$$libinit$$00000024) for __rt_lib_init_stdio_2
    initio.o(.text) refers (Special) to libshutdown2.o(.ARM.Collect$$libshutdown$$00000004) for __rt_lib_shutdown_stdio_2
    initio.o(.text) refers to rt_memclr_w.o(.text) for __aeabi_memclr4
    initio.o(.text) refers to fopen.o(.text) for freopen
    initio.o(.text) refers to defsig_rtred_outer.o(.text) for __rt_SIGRTRED
    initio.o(.text) refers to setvbuf.o(.text) for setvbuf
    initio.o(.text) refers to fclose.o(.text) for _fclose_internal
    initio.o(.text) refers to h1_free.o(.text) for free
    initio.o(.text) refers to stdio_streams.o(.bss) for __stdin
    initio.o(.text) refers to stdio_streams.o(.bss) for __stdout
    initio.o(.text) refers to stdio_streams.o(.bss) for __stderr
    initio.o(.text) refers to stdio_streams.o(.data) for __aeabi_stdin
    initio.o(.text) refers to stdio_streams.o(.data) for __aeabi_stdout
    initio.o(.text) refers to stdio_streams.o(.data) for __aeabi_stderr
    initio.o(.text) refers to stdio.cpp.lpc1768.arm.o(.constdata) for __stdin_name
    initio_locked.o(.text) refers (Special) to libinit2.o(.ARM.Collect$$libinit$$00000024) for __rt_lib_init_stdio_2
    initio_locked.o(.text) refers (Special) to libshutdown2.o(.ARM.Collect$$libshutdown$$00000004) for __rt_lib_shutdown_stdio_2
    initio_locked.o(.text) refers to rt_memclr_w.o(.text) for __aeabi_memclr4
    initio_locked.o(.text) refers to fopen.o(.text) for freopen
    initio_locked.o(.text) refers to defsig_rtred_outer.o(.text) for __rt_SIGRTRED
    initio_locked.o(.text) refers to setvbuf.o(.text) for setvbuf
    initio_locked.o(.text) refers to fclose.o(.text) for _fclose_internal
    initio_locked.o(.text) refers to h1_free.o(.text) for free
    initio_locked.o(.text) refers to stdio_streams.o(.bss) for __stdin
    initio_locked.o(.text) refers to stdio_streams.o(.bss) for __stdout
    initio_locked.o(.text) refers to stdio_streams.o(.bss) for __stderr
    initio_locked.o(.text) refers to stdio_streams.o(.data) for __aeabi_stdin
    initio_locked.o(.text) refers to stdio_streams.o(.data) for __aeabi_stdout
    initio_locked.o(.text) refers to stdio_streams.o(.data) for __aeabi_stderr
    initio_locked.o(.text) refers to streamlock.o(.data) for _stream_list_lock
    initio_locked.o(.text) refers to stdio.cpp.lpc1768.arm.o(.constdata) for __stdin_name
    abort.o(.text) refers to defsig_abrt_outer.o(.text) for __rt_SIGABRT
    abort.o(.text) refers to sys_exit.o(.text) for _sys_exit
    cxa_finalize.o(.text) refers (Special) to libshutdown2.o(.ARM.Collect$$libshutdown$$00000002) for __rt_lib_shutdown_cpp_2
    cxa_finalize.o(.text) refers to rt_ddtor_pointer_addr.o(.text) for __rt_ddtor_pointer_addr
    cxa_finalize.o(.text) refers to h1_free.o(.text) for free
    cxa_finalize.o(.ARM.exidx) refers (Special) to libshutdown2.o(.ARM.Collect$$libshutdown$$00000002) for __rt_lib_shutdown_cpp_2
    cxa_finalize.o(.ARM.exidx) refers to cxa_finalize.o(.text) for .text
    defsig_pvfn_outer.o(.text) refers to defsig_pvfn_inner.o(.text) for __rt_SIGPVFN_inner
    defsig_pvfn_outer.o(.text) refers to defsig_exit.o(.text) for __sig_exit
    defsig_pvfn_formal.o(.text) refers to rt_raise.o(.text) for __rt_raise
    assert_puts.o(.text) refers to sys_wrch.o(.text) for _ttywrch
    rt_memclr.o(.text) refers to rt_memclr_w.o(.text) for _memset_w
    localtime_internal.o(.text) refers to rt_memclr_w.o(.text) for __aeabi_memclr4
    localtime_internal.o(.text) refers to _monlen.o(.constdata) for _monlen
    libinit2.o(.ARM.Collect$$libinit$$00000005) refers (Weak) to init_alloc.o(.text) for _init_alloc
    libinit2.o(.ARM.Collect$$libinit$$0000000D) refers (Weak) to rand.o(.text) for _rand_init
    libinit2.o(.ARM.Collect$$libinit$$0000000F) refers (Weak) to rt_locale.o(.text) for __rt_locale
    libinit2.o(.ARM.Collect$$libinit$$00000010) refers to libinit2.o(.ARM.Collect$$libinit$$0000000F) for .ARM.Collect$$libinit$$0000000F
    libinit2.o(.ARM.Collect$$libinit$$00000012) refers to libinit2.o(.ARM.Collect$$libinit$$0000000F) for .ARM.Collect$$libinit$$0000000F
    libinit2.o(.ARM.Collect$$libinit$$00000012) refers (Weak) to lc_ctype_c.o(locale$$code) for _get_lc_ctype
    libinit2.o(.ARM.Collect$$libinit$$00000014) refers to libinit2.o(.ARM.Collect$$libinit$$0000000F) for .ARM.Collect$$libinit$$0000000F
    libinit2.o(.ARM.Collect$$libinit$$00000016) refers to libinit2.o(.ARM.Collect$$libinit$$0000000F) for .ARM.Collect$$libinit$$0000000F
    libinit2.o(.ARM.Collect$$libinit$$00000016) refers (Weak) to lc_numeric_c.o(locale$$code) for _get_lc_numeric
    libinit2.o(.ARM.Collect$$libinit$$00000018) refers to libinit2.o(.ARM.Collect$$libinit$$0000000F) for .ARM.Collect$$libinit$$0000000F
    libinit2.o(.ARM.Collect$$libinit$$00000024) refers (Weak) to initio.o(.text) for _initio
    libinit2.o(.ARM.Collect$$libinit$$00000026) refers to argv_veneer.o(.emb_text) for __ARM_argv_veneer
    libinit2.o(.ARM.Collect$$libinit$$00000027) refers to argv_veneer.o(.emb_text) for __ARM_argv_veneer
    libinit2.o(.ARM.Collect$$libinit$$00000031) refers (Weak) to init_aeabi.o(.text) for __cpp_initialize__aeabi_
    arm_bad_typeid_noexceptions.o(.text) refers to arm_exceptions_terminate.o(.text) for std::terminate()
    arm_bad_typeid_noexceptions.o(.ARM.exidx) refers to arm_bad_typeid_noexceptions.o(.text) for .text
    arm_callunex_noexceptions.o(.ARM.exidx) refers to arm_callunex_noexceptions.o(.text) for .text
    arm_newhandler_noexceptions.o(.text) refers to arm_exceptions_terminate.o(.text) for std::terminate()
    arm_newhandler_noexceptions.o(.ARM.exidx) refers to arm_newhandler_noexceptions.o(.text) for .text
    bad_alloc_dtor.o(i._ZNSt9bad_allocD0Ev) refers to bad_alloc_dtor.o(i._ZNSt9bad_allocD1Ev) for std::bad_alloc::~bad_alloc()
    bad_alloc_dtor.o(i._ZNSt9bad_allocD0Ev) refers to delete.o(i._ZdlPv) for operator delete (void*)
    bad_alloc_dtor.o(.ARM.exidx) refers to bad_alloc_dtor.o(i._ZNSt9bad_allocD1Ev) for i._ZNSt9bad_allocD1Ev
    bad_alloc_dtor.o(.ARM.exidx) refers to bad_alloc_dtor.o(i._ZNSt9bad_allocD0Ev) for i._ZNSt9bad_allocD0Ev
    type_info_dtor.o(.ARM.exidx) refers to type_info_dtor.o(i._ZNSt9type_infoD1Ev) for i._ZNSt9type_infoD1Ev
    type_info_dtor.o(.ARM.exidx) refers to type_info_dtor.o(i._ZNSt9type_infoD0Ev) for i._ZNSt9type_infoD0Ev
    type_info_eq.o(.ARM.exidx) refers to type_info_eq.o(i._ZNKSt9type_infoeqERKS_) for i._ZNKSt9type_infoeqERKS_
    arm_exceptions_callterm.o(.text) refers to arm_exceptions_globs.o(.text) for __cxa_get_globals
    arm_exceptions_callterm.o(.text) refers to arm_exceptions_support.o(.text) for __ARM::is_foreign_exception(_Unwind_Control_Block*)
    arm_exceptions_callterm.o(.text) refers to arm_exceptions_terminate.o(.text) for std::terminate()
    arm_exceptions_callterm.o(.ARM.exidx) refers to arm_exceptions_callterm.o(.text) for .text
    unwind_pr0.o(.text) refers to unwind_prcommon.o(.text) for __ARM_unwind_cpp_prcommon
    unwind_pr0.o(.ARM.exidx) refers to unwind_pr0.o(.text) for .text
    dnaninf.o(x$fpl$dnaninf) refers (Special) to usenofp.o(x$fpl$usenofp) for __I$use$fp
    dretinf.o(x$fpl$dretinf) refers (Special) to usenofp.o(x$fpl$usenofp) for __I$use$fp
    fnaninf.o(x$fpl$fnaninf) refers (Special) to usenofp.o(x$fpl$usenofp) for __I$use$fp
    fretinf.o(x$fpl$fretinf) refers (Special) to usenofp.o(x$fpl$usenofp) for __I$use$fp
    istatus.o(x$fpl$ieeestatus) refers (Special) to usenofp.o(x$fpl$usenofp) for __I$use$fp
    printf1.o(x$fpl$printf1) refers to _printf_fp_dec.o(.text) for _printf_fp_dec_real
    printf2.o(x$fpl$printf2) refers to _printf_fp_hex.o(.text) for _printf_fp_hex_real
    printf2b.o(x$fpl$printf2) refers to _printf_fp_hex.o(.text) for _printf_fp_hex_real
    scalbnf.o(x$fpl$scalbnf) refers (Special) to usenofp.o(x$fpl$usenofp) for __I$use$fp
    scalbnf.o(x$fpl$scalbnf) refers to fcheck1.o(x$fpl$fcheck1) for __fpl_fcheck_NaN1
    scanf1.o(x$fpl$scanf1) refers to scanf_fp.o(.text) for _scanf_really_real
    funder.o(i.__mathlib_flt_divzero) refers to fdiv.o(x$fpl$fdiv) for __aeabi_fdiv
    funder.o(i.__mathlib_flt_infnan) refers to scalbnf.o(x$fpl$scalbnf) for __ARM_scalbnf
    funder.o(i.__mathlib_flt_infnan2) refers to faddsub_clz.o(x$fpl$fadd) for __aeabi_fadd
    funder.o(i.__mathlib_flt_invalid) refers to fdiv.o(x$fpl$fdiv) for __aeabi_fdiv
    funder.o(i.__mathlib_flt_overflow) refers to scalbnf.o(x$fpl$scalbnf) for __ARM_scalbnf
    funder.o(i.__mathlib_flt_posinfnan) refers to fmul.o(x$fpl$fmul) for __aeabi_fmul
    funder.o(i.__mathlib_flt_underflow) refers to scalbnf.o(x$fpl$scalbnf) for __ARM_scalbnf
    sys_wrch.o(.text) refers (Special) to use_no_semi.o(.text) for __I$use$semihosting
    sys_wrch.o(.text) refers (Special) to indicate_semi.o(.text) for __semihosting_library_function
    sys_exit.o(.text) refers (Special) to use_no_semi.o(.text) for __I$use$semihosting
    sys_exit.o(.text) refers (Special) to indicate_semi.o(.text) for __semihosting_library_function
    libspace.o(.text) refers to libspace.o(.bss) for __libspace_start
    __rtentry2.o(.ARM.Collect$$rtentry$$00000008) refers to boardinit2.o(.text) for _platform_post_stackheap_init
    __rtentry2.o(.ARM.Collect$$rtentry$$0000000A) refers to libinit.o(.ARM.Collect$$libinit$$00000000) for __rt_lib_init
    __rtentry2.o(.ARM.Collect$$rtentry$$0000000B) refers to boardinit3.o(.text) for _platform_post_lib_init
    __rtentry2.o(.ARM.Collect$$rtentry$$0000000D) refers to main.o(i.main) for main
    __rtentry2.o(.ARM.Collect$$rtentry$$0000000D) refers to exit.c.lpc1768.arm.o(i.exit) for exit
    __rtentry2.o(.ARM.exidx) refers to __rtentry2.o(.ARM.Collect$$rtentry$$00000001) for .ARM.Collect$$rtentry$$00000001
    __rtentry2.o(.ARM.exidx) refers to __rtentry2.o(.ARM.Collect$$rtentry$$00000008) for .ARM.Collect$$rtentry$$00000008
    __rtentry2.o(.ARM.exidx) refers to __rtentry2.o(.ARM.Collect$$rtentry$$0000000A) for .ARM.Collect$$rtentry$$0000000A
    __rtentry2.o(.ARM.exidx) refers to __rtentry2.o(.ARM.Collect$$rtentry$$0000000B) for .ARM.Collect$$rtentry$$0000000B
    __rtentry2.o(.ARM.exidx) refers to __rtentry2.o(.ARM.Collect$$rtentry$$0000000D) for .ARM.Collect$$rtentry$$0000000D
    __rtentry4.o(.ARM.Collect$$rtentry$$00000004) refers to stackheap.o(i.__user_setup_stackheap) for __user_setup_stackheap
    __rtentry4.o(.ARM.exidx) refers to __rtentry4.o(.ARM.Collect$$rtentry$$00000004) for .ARM.Collect$$rtentry$$00000004
    rt_div0.o(.text) refers to defsig_fpe_outer.o(.text) for __rt_SIGFPE
    rt_raise.o(.text) refers to __raise.o(.text) for __raise
    rt_raise.o(.text) refers to sys_exit.o(.text) for _sys_exit
    rt_heap_descriptor.o(.text) refers to rt_heap_descriptor.o(.bss) for __rt_heap_descriptor_data
    rt_heap_descriptor_intlibspace.o(.text) refers to libspace.o(.bss) for __libspace_start
    rt_locale.o(.text) refers to rt_locale.o(.bss) for __rt_locale_data
    rt_locale_intlibspace.o(.text) refers to libspace.o(.bss) for __libspace_start
    init_alloc.o(.text) refers (Special) to hguard.o(.text) for __heap$guard
    init_alloc.o(.text) refers (Special) to libinit2.o(.ARM.Collect$$libinit$$00000005) for __rt_lib_init_heap_2
    init_alloc.o(.text) refers (Special) to maybetermalloc1.o(.emb_text) for _maybe_terminate_alloc
    init_alloc.o(.text) refers to heapauxa.o(.text) for __rt_heap_expand
    init_alloc.o(.text) refers to h1_extend.o(.text) for __Heap_ProvideMemory
    init_alloc.o(.text) refers to defsig_rtmem_outer.o(.text) for __rt_SIGRTMEM
    init_alloc.o(.text) refers to rt_heap_descriptor.o(.text) for __rt_heap_descriptor
    init_alloc.o(.text) refers to h1_init.o(.text) for __Heap_Initialize
    h1_init_mt.o(.text) refers to mutex_dummy.o(.text) for _mutex_initialize
    isspace.o(.text) refers to rt_ctype_table.o(.text) for __rt_ctype_table
    _printf_fp_dec.o(.text) refers (Special) to usenofp.o(x$fpl$usenofp) for __I$use$fp
    _printf_fp_dec.o(.text) refers (Special) to lc_numeric_c.o(locale$$code) for _get_lc_numeric
    _printf_fp_dec.o(.text) refers to bigflt0.o(.text) for _btod_etento
    _printf_fp_dec.o(.text) refers to btod.o(CL$$btod_d2e) for _btod_d2e
    _printf_fp_dec.o(.text) refers to btod.o(CL$$btod_ediv) for _btod_ediv
    _printf_fp_dec.o(.text) refers to btod.o(CL$$btod_emul) for _btod_emul
    _printf_fp_dec.o(.text) refers to lludiv10.o(.text) for _ll_udiv10
    _printf_fp_dec.o(.text) refers to fpclassify.o(i.__ARM_fpclassify) for __ARM_fpclassify
    _printf_fp_dec.o(.text) refers to _printf_fp_infnan.o(.text) for _printf_fp_infnan
    _printf_fp_dec.o(.text) refers (Weak) to _printf_pad.o(.text) for _printf_pre_padding
    _printf_fp_dec.o(.text) refers (Weak) to _printf_pad.o(.text) for _printf_pre_padding
    _printf_fp_dec.o(.text) refers to rt_locale.o(.text) for __rt_locale
    _printf_fp_dec.o(.text) refers (Weak) to _printf_pad.o(.text) for _printf_post_padding
    _printf_fp_hex.o(.text) refers (Special) to usenofp.o(x$fpl$usenofp) for __I$use$fp
    _printf_fp_hex.o(.text) refers to fpclassify.o(i.__ARM_fpclassify) for __ARM_fpclassify
    _printf_fp_hex.o(.text) refers to _printf_fp_infnan.o(.text) for _printf_fp_infnan
    _printf_fp_hex.o(.text) refers (Weak) to _printf_pad.o(.text) for _printf_pre_padding
    _printf_fp_hex.o(.text) refers (Weak) to _printf_pad.o(.text) for _printf_pre_padding
    _printf_fp_hex.o(.text) refers (Weak) to _printf_pad.o(.text) for _printf_post_padding
    _printf_fp_hex.o(.text) refers to _printf_fp_hex.o(.constdata) for .constdata
    _printf_fp_hex.o(.constdata) refers (Special) to usenofp.o(x$fpl$usenofp) for __I$use$fp
    _printf_wchar.o(.text) refers (Weak) to _printf_wctomb.o(.text) for _printf_wctomb
    _scanf.o(.text) refers (Weak) to scanf1.o(x$fpl$scanf1) for _scanf_real
    _scanf.o(.text) refers (Weak) to _scanf_longlong.o(.text) for _scanf_longlong
    _scanf.o(.text) refers (Weak) to _scanf_int.o(.text) for _scanf_int
    _scanf.o(.text) refers (Weak) to _scanf_wstr.o(.text) for _scanf_wstring
    _scanf.o(.text) refers (Weak) to _scanf_mbtowc.o(.text) for _scanf_mbtowc
    _scanf.o(.text) refers (Weak) to _scanf_str.o(.text) for _scanf_string
    _scanf.o(.text) refers (Weak) to _scanf_wctomb.o(.text) for _scanf_wctomb
    scanf_fp.o(.text) refers (Special) to usenofp.o(x$fpl$usenofp) for __I$use$fp
    scanf_fp.o(.text) refers (Special) to lc_numeric_c.o(locale$$code) for _get_lc_numeric
    scanf_fp.o(.text) refers to rt_errno_addr.o(.text) for __aeabi_errno_addr
    scanf_fp.o(.text) refers to istatus.o(x$fpl$ieeestatus) for __ieee_status
    scanf_fp.o(.text) refers to bigflt0.o(.text) for _btod_etento
    scanf_fp.o(.text) refers to btod.o(CL$$btod_emuld) for _btod_emuld
    scanf_fp.o(.text) refers to btod.o(CL$$btod_edivd) for _btod_edivd
    scanf_fp.o(.text) refers to rt_locale.o(.text) for __rt_locale
    scanf_fp.o(.text) refers to scanf2.o(x$fpl$scanf2) for _scanf_infnan
    scanf_fp.o(.text) refers to __printf_wp.o(i._is_digit) for _is_digit
    scanf_fp.o(.text) refers to fpconst.o(c$$dmax) for __dbl_max
    scanf_fp.o(.text) refers to fpconst.o(c$$dinf) for __huge_val
    scanf_fp.o(.text) refers to narrow.o(i.__mathlib_narrow) for __mathlib_narrow
    flsbuf.o(.text) refers to stdio.o(.text) for _deferredlazyseek
    flsbuf.o(.text) refers to stdio.cpp.lpc1768.arm.o(i._sys_flen) for _sys_flen
    flsbuf.o(.text) refers to stdio.cpp.lpc1768.arm.o(i._sys_istty) for _sys_istty
    flsbuf.o(.text) refers to h1_alloc.o(.text) for malloc
    streamlock.o(.data) refers (Special) to initio.o(.text) for _initio
    fopen.o(.text) refers to fclose.o(.text) for _fclose_internal
    fopen.o(.text) refers to stdio.cpp.lpc1768.arm.o(i._sys_open) for _sys_open
    fopen.o(.text) refers to fseek.o(.text) for _fseek
    fopen.o(.text) refers to h1_alloc.o(.text) for malloc
    fopen.o(.text) refers to rt_memclr_w.o(.text) for __aeabi_memclr4
    fopen.o(.text) refers to stdio_streams.o(.bss) for __stdin
    fclose.o(.text) refers to stdio.o(.text) for _fflush
    fclose.o(.text) refers to stdio.cpp.lpc1768.arm.o(i._sys_close) for _sys_close
    fclose.o(.text) refers to h1_free.o(.text) for free
    fclose.o(.text) refers to rt_memclr_w.o(.text) for __aeabi_memclr4
    fopen_locked.o(.text) refers to fclose.o(.text) for _fclose_internal
    fopen_locked.o(.text) refers to stdio.cpp.lpc1768.arm.o(i._sys_open) for _sys_open
    fopen_locked.o(.text) refers to fseek.o(.text) for _fseek
    fopen_locked.o(.text) refers to h1_alloc.o(.text) for malloc
    fopen_locked.o(.text) refers to rt_memclr_w.o(.text) for __aeabi_memclr4
    fopen_locked.o(.text) refers to streamlock.o(.data) for _stream_list_lock
    fopen_locked.o(.text) refers to stdio_streams.o(.bss) for __stdin
    _mbrtowc.o(.text) refers to rt_ctype_table.o(.text) for __rt_ctype_table
    _wcrtomb.o(.text) refers to rt_ctype_table.o(.text) for __rt_ctype_table
    lc_ctype_c.o(locale$$data) refers (Special) to libinit2.o(.ARM.Collect$$libinit$$00000012) for __rt_lib_init_lc_ctype_2
    lc_ctype_c.o(locale$$code) refers (Special) to libinit2.o(.ARM.Collect$$libinit$$00000012) for __rt_lib_init_lc_ctype_2
    lc_ctype_c.o(locale$$code) refers to strcmpv7m.o(.text) for strcmp
    lc_ctype_c.o(locale$$code) refers to lc_ctype_c.o(locale$$data) for __lcctype_c_name
    defsig_exit.o(.text) refers to sys_exit.o(.text) for _sys_exit
    defsig_abrt_outer.o(.text) refers to defsig_abrt_inner.o(.text) for __rt_SIGABRT_inner
    defsig_abrt_outer.o(.text) refers to defsig_exit.o(.text) for __sig_exit
    defsig_abrt_formal.o(.text) refers to rt_raise.o(.text) for __rt_raise
    defsig_rtred_outer.o(.text) refers to defsig_rtred_inner.o(.text) for __rt_SIGRTRED_inner
    defsig_rtred_outer.o(.text) refers to defsig_exit.o(.text) for __sig_exit
    defsig_rtred_formal.o(.text) refers to rt_raise.o(.text) for __rt_raise
    defsig_pvfn_inner.o(.text) refers to defsig_general.o(.text) for __default_signal_display
    _get_argv.o(.text) refers (Special) to hrguard.o(.text) for __heap_region$guard
    _get_argv.o(.text) refers to h1_alloc.o(.text) for malloc
    _get_argv.o(.text) refers to defsig_rtmem_outer.o(.text) for __rt_SIGRTMEM
    _get_argv.o(.text) refers to stdio.cpp.lpc1768.arm.o(i._sys_command_string) for _sys_command_string
    argv_veneer.o(.emb_text) refers to no_argv.o(.text) for __ARM_get_argv
    libshutdown2.o(.ARM.Collect$$libshutdown$$00000001) refers (Weak) to cxa_finalize.o(.text) for __cxa_finalize
    libshutdown2.o(.ARM.Collect$$libshutdown$$00000003) refers (Weak) to initio.o(.text) for _terminateio
    libshutdown2.o(.ARM.Collect$$libshutdown$$0000000D) refers (Weak) to term_alloc.o(.text) for _terminate_alloc
    flsbuf_fwide.o(.text) refers to flsbuf.o(.text) for __flsbuf
    arm_begincatch_noexceptions.o(.ARM.exidx) refers to arm_begincatch_noexceptions.o(.text) for .text
    bad_alloc_what.o(.ARM.exidx) refers to bad_alloc_what.o(i._ZNKSt9bad_alloc4whatEv) for i._ZNKSt9bad_alloc4whatEv
    exception_dtor.o(i._ZNSt9exceptionD0Ev) refers to delete.o(i._ZdlPv) for operator delete (void*)
    exception_dtor.o(.ARM.exidx) refers to exception_dtor.o(i._ZNSt9exceptionD1Ev) for i._ZNSt9exceptionD1Ev
    exception_dtor.o(.ARM.exidx) refers to exception_dtor.o(i._ZNSt9exceptionD0Ev) for i._ZNSt9exceptionD0Ev
    type_info_name.o(.ARM.exidx) refers to type_info_name.o(i._ZNKSt9type_info4nameEv) for i._ZNKSt9type_info4nameEv
    arm_exceptions_terminate.o(.text) refers to arm_exceptions_globs.o(.text) for __cxa_get_globals
    arm_exceptions_terminate.o(.text) refers to abort.o(.text) for abort
    arm_exceptions_terminate.o(.ARM.exidx) refers to arm_exceptions_terminate.o(.text) for .text
    arm_exceptions_support.o(.text) refers to arm_exceptions_support.o(.constdata) for .constdata
    arm_exceptions_support.o(.ARM.exidx) refers to arm_exceptions_support.o(.text) for .text
    arm_exceptions_globs.o(.text) refers to abort.o(.text) for abort
    arm_exceptions_globs.o(.text) refers to rt_eh_globals_addr.o(.text) for __rt_eh_globals_addr
    arm_exceptions_globs.o(.text) refers to h1_alloc.o(.text) for malloc
    arm_exceptions_globs.o(.text) refers to arm_exceptions_mem.o(.text) for __ARM_exceptions_buffer_init
    arm_exceptions_globs.o(.ARM.exidx) refers to arm_exceptions_globs.o(.text) for .text
    unwind_prcommon.o(.text) refers to unwinder.o(.text) for _Unwind_VRS_Get
    unwind_prcommon.o(.text) refers to unwind_activity.o(.emb_text) for _Unwind_Activity
    unwind_prcommon.o(.text) refers (Weak) to arm_callunex_noexceptions.o(.text) for __cxa_call_unexpected
    unwind_prcommon.o(.ARM.exidx) refers to unwind_prcommon.o(.text) for .text
    fcheck1.o(x$fpl$fcheck1) refers (Special) to usenofp.o(x$fpl$usenofp) for __I$use$fp
    fcheck1.o(x$fpl$fcheck1) refers to retnan.o(x$fpl$retnan) for __fpl_return_NaN
    rt_eh_globals_addr.o(.text) refers to rt_eh_globals_addr.o(.bss) for __rt_eh_globals_addr_data
    rt_eh_globals_addr_intlibspace.o(.text) refers to libspace.o(.bss) for __libspace_start
    maybetermalloc2.o(.emb_text) refers (Special) to term_alloc.o(.text) for _terminate_alloc
    h1_extend.o(.text) refers to h1_free.o(.text) for free
    h1_extend_mt.o(.text) refers to h1_free_mt.o(.text) for _free_internal
    _printf_fp_infnan.o(.text) refers (Weak) to _printf_pad.o(.text) for _printf_pre_padding
    _printf_fp_infnan.o(.text) refers (Weak) to _printf_pad.o(.text) for _printf_post_padding
    _printf_char_file_locked.o(.text) refers to _printf_char_common.o(.text) for _printf_char_common
    _printf_char_file_locked.o(.text) refers to fputc.o(i._fputc$unlocked) for _fputc$unlocked
    bigflt0.o(.text) refers (Special) to usenofp.o(x$fpl$usenofp) for __I$use$fp
    bigflt0.o(.text) refers to btod.o(CL$$btod_emul) for _btod_emul
    bigflt0.o(.text) refers to btod.o(CL$$btod_ediv) for _btod_ediv
    bigflt0.o(.text) refers to bigflt0.o(.constdata) for .constdata
    bigflt0.o(.constdata) refers (Special) to usenofp.o(x$fpl$usenofp) for __I$use$fp
    btod.o(CL$$btod_d2e) refers (Special) to usenofp.o(x$fpl$usenofp) for __I$use$fp
    btod.o(CL$$btod_d2e) refers to btod.o(CL$$btod_d2e_norm_op1) for _d2e_norm_op1
    btod.o(CL$$btod_d2e_norm_op1) refers (Special) to usenofp.o(x$fpl$usenofp) for __I$use$fp
    btod.o(CL$$btod_d2e_norm_op1) refers to btod.o(CL$$btod_d2e_denorm_low) for _d2e_denorm_low
    btod.o(CL$$btod_d2e_denorm_low) refers (Special) to usenofp.o(x$fpl$usenofp) for __I$use$fp
    btod.o(CL$$btod_emul) refers (Special) to usenofp.o(x$fpl$usenofp) for __I$use$fp
    btod.o(CL$$btod_emul) refers to btod.o(CL$$btod_mult_common) for __btod_mult_common
    btod.o(CL$$btod_emul) refers to btod.o(CL$$btod_e2e) for _e2e
    btod.o(CL$$btod_ediv) refers (Special) to usenofp.o(x$fpl$usenofp) for __I$use$fp
    btod.o(CL$$btod_ediv) refers to btod.o(CL$$btod_div_common) for __btod_div_common
    btod.o(CL$$btod_ediv) refers to btod.o(CL$$btod_e2e) for _e2e
    btod.o(CL$$btod_emuld) refers (Special) to usenofp.o(x$fpl$usenofp) for __I$use$fp
    btod.o(CL$$btod_emuld) refers to btod.o(CL$$btod_mult_common) for __btod_mult_common
    btod.o(CL$$btod_emuld) refers to btod.o(CL$$btod_e2d) for _e2d
    btod.o(CL$$btod_edivd) refers (Special) to usenofp.o(x$fpl$usenofp) for __I$use$fp
    btod.o(CL$$btod_edivd) refers to btod.o(CL$$btod_div_common) for __btod_div_common
    btod.o(CL$$btod_edivd) refers to btod.o(CL$$btod_e2d) for _e2d
    btod.o(CL$$btod_e2e) refers (Special) to usenofp.o(x$fpl$usenofp) for __I$use$fp
    btod.o(CL$$btod_e2d) refers (Special) to usenofp.o(x$fpl$usenofp) for __I$use$fp
    btod.o(CL$$btod_e2d) refers to btod.o(CL$$btod_e2e) for _e2e
    btod.o(CL$$btod_mult_common) refers (Special) to usenofp.o(x$fpl$usenofp) for __I$use$fp
    btod.o(CL$$btod_div_common) refers (Special) to usenofp.o(x$fpl$usenofp) for __I$use$fp
    fseek.o(.text) refers to stdio.cpp.lpc1768.arm.o(i._sys_istty) for _sys_istty
    fseek.o(.text) refers to ftell.o(.text) for _ftell_internal
    fseek.o(.text) refers to stdio.cpp.lpc1768.arm.o(i._sys_flen) for _sys_flen
    fseek.o(.text) refers to stdio.o(.text) for _seterr
    stdio.o(.text) refers to stdio.cpp.lpc1768.arm.o(i._sys_seek) for _sys_seek
    stdio.o(.text) refers to stdio.cpp.lpc1768.arm.o(i._sys_write) for _sys_write
    fwritefast.o(.text) refers to stdio.o(.text) for _writebuf
    fwritefast.o(.text) refers to flsbuf.o(.text) for __flsbuf_byte
    fwritefast.o(.text) refers to rt_memcpy_v6.o(.text) for __aeabi_memcpy
    fwritefast_locked.o(.text) refers to stdio.o(.text) for _writebuf
    fwritefast_locked.o(.text) refers to flsbuf.o(.text) for __flsbuf_byte
    fwritefast_locked.o(.text) refers to rt_memcpy_v6.o(.text) for __aeabi_memcpy
    lc_numeric_c.o(locale$$data) refers (Special) to libinit2.o(.ARM.Collect$$libinit$$00000016) for __rt_lib_init_lc_numeric_2
    lc_numeric_c.o(locale$$code) refers (Special) to libinit2.o(.ARM.Collect$$libinit$$00000016) for __rt_lib_init_lc_numeric_2
    lc_numeric_c.o(locale$$code) refers to strcmpv7m.o(.text) for strcmp
    lc_numeric_c.o(locale$$code) refers to lc_numeric_c.o(locale$$data) for __lcnum_c_name
    __raise.o(.text) refers to defsig.o(CL$$defsig) for __default_signal_handler
    defsig_general.o(.text) refers to sys_wrch.o(.text) for _ttywrch
    defsig_abrt_inner.o(.text) refers to defsig_general.o(.text) for __default_signal_display
    defsig_fpe_outer.o(.text) refers to defsig_fpe_inner.o(.text) for __rt_SIGFPE_inner
    defsig_fpe_outer.o(.text) refers to defsig_exit.o(.text) for __sig_exit
    defsig_fpe_formal.o(.text) refers to rt_raise.o(.text) for __rt_raise
    defsig_rtred_inner.o(.text) refers to defsig_general.o(.text) for __default_signal_display
    defsig_rtmem_outer.o(.text) refers to defsig_rtmem_inner.o(.text) for __rt_SIGRTMEM_inner
    defsig_rtmem_outer.o(.text) refers to defsig_exit.o(.text) for __sig_exit
    defsig_rtmem_formal.o(.text) refers to rt_raise.o(.text) for __rt_raise
    assert_stdio.o(.text) refers to fputs.o(.text) for fputs
    assert_stdio.o(.text) refers to fflush.o(.text) for fflush
    assert_stdio.o(.text) refers to stdio_streams.o(.bss) for __stderr
    heapauxa.o(.text) refers to heapauxa.o(.data) for .data
    _get_argv_nomalloc.o(.text) refers (Special) to hrguard.o(.text) for __heap_region$guard
    _get_argv_nomalloc.o(.text) refers to defsig_rtmem_outer.o(.text) for __rt_SIGRTMEM
    _get_argv_nomalloc.o(.text) refers to stdio.cpp.lpc1768.arm.o(i._sys_command_string) for _sys_command_string
    libinit.o(.ARM.Collect$$libinit$$00000000) refers (Special) to libinit2.o(.ARM.Collect$$libinit$$0000002E) for __rt_lib_init_alloca_1
    libinit.o(.ARM.Collect$$libinit$$00000000) refers (Special) to libinit2.o(.ARM.Collect$$libinit$$0000002C) for __rt_lib_init_argv_1
    libinit.o(.ARM.Collect$$libinit$$00000000) refers (Special) to libinit2.o(.ARM.Collect$$libinit$$0000001B) for __rt_lib_init_atexit_1
    libinit.o(.ARM.Collect$$libinit$$00000000) refers (Special) to libinit2.o(.ARM.Collect$$libinit$$00000021) for __rt_lib_init_clock_1
    libinit.o(.ARM.Collect$$libinit$$00000000) refers (Special) to libinit2.o(.ARM.Collect$$libinit$$00000032) for __rt_lib_init_cpp_1
    libinit.o(.ARM.Collect$$libinit$$00000000) refers (Special) to libinit2.o(.ARM.Collect$$libinit$$00000030) for __rt_lib_init_exceptions_1
    libinit.o(.ARM.Collect$$libinit$$00000000) refers (Special) to libinit2.o(.ARM.Collect$$libinit$$00000002) for __rt_lib_init_fp_1
    libinit.o(.ARM.Collect$$libinit$$00000000) refers (Special) to libinit2.o(.ARM.Collect$$libinit$$0000001F) for __rt_lib_init_fp_trap_1
    libinit.o(.ARM.Collect$$libinit$$00000000) refers (Special) to libinit2.o(.ARM.Collect$$libinit$$00000023) for __rt_lib_init_getenv_1
    libinit.o(.ARM.Collect$$libinit$$00000000) refers (Special) to libinit2.o(.ARM.Collect$$libinit$$0000000A) for __rt_lib_init_heap_1
    libinit.o(.ARM.Collect$$libinit$$00000000) refers (Special) to libinit2.o(.ARM.Collect$$libinit$$00000011) for __rt_lib_init_lc_collate_1
    libinit.o(.ARM.Collect$$libinit$$00000000) refers (Special) to libinit2.o(.ARM.Collect$$libinit$$00000013) for __rt_lib_init_lc_ctype_1
    libinit.o(.ARM.Collect$$libinit$$00000000) refers (Special) to libinit2.o(.ARM.Collect$$libinit$$00000015) for __rt_lib_init_lc_monetary_1
    libinit.o(.ARM.Collect$$libinit$$00000000) refers (Special) to libinit2.o(.ARM.Collect$$libinit$$00000017) for __rt_lib_init_lc_numeric_1
    libinit.o(.ARM.Collect$$libinit$$00000000) refers (Special) to libinit2.o(.ARM.Collect$$libinit$$00000019) for __rt_lib_init_lc_time_1
    libinit.o(.ARM.Collect$$libinit$$00000000) refers (Special) to libinit2.o(.ARM.Collect$$libinit$$00000004) for __rt_lib_init_preinit_1
    libinit.o(.ARM.Collect$$libinit$$00000000) refers (Special) to libinit2.o(.ARM.Collect$$libinit$$0000000E) for __rt_lib_init_rand_1
    libinit.o(.ARM.Collect$$libinit$$00000000) refers (Special) to libinit2.o(.ARM.Collect$$libinit$$00000033) for __rt_lib_init_return
    libinit.o(.ARM.Collect$$libinit$$00000000) refers (Special) to libinit2.o(.ARM.Collect$$libinit$$0000001D) for __rt_lib_init_signal_1
    libinit.o(.ARM.Collect$$libinit$$00000000) refers (Special) to libinit2.o(.ARM.Collect$$libinit$$00000025) for __rt_lib_init_stdio_1
    libinit.o(.ARM.Collect$$libinit$$00000000) refers (Special) to libinit2.o(.ARM.Collect$$libinit$$0000000C) for __rt_lib_init_user_alloc_1
    exception_what.o(.ARM.exidx) refers to exception_what.o(i._ZNKSt9exception4whatEv) for i._ZNKSt9exception4whatEv
    arm_exceptions_mem.o(.text) refers to h1_alloc.o(.text) for malloc
    arm_exceptions_mem.o(.ARM.exidx) refers to arm_exceptions_mem.o(.text) for .text
    unwinder.o(.emb_text) refers to unwinder.o(.text) for __ARM_Unwind_RaiseException
    unwinder.o(.text) refers to bsearchnoex.o(.text) for bsearch
    unwinder.o(.text) refers to unwind_activity.o(.emb_text) for _Unwind_Activity
    unwinder.o(.text) refers to abort.o(.text) for abort
    unwinder.o(.text) refers to unwinder.o(.emb_text) for __ARM_Unwind_VRS_corerestore
    unwinder.o(.text) refers to h1_alloc.o(.text) for malloc
    unwinder.o(.text) refers to rt_memcpy_w.o(.text) for __aeabi_memcpy4
    unwinder.o(.text) refers to h1_free.o(.text) for free
    unwinder.o(.text) refers (Weak) to unwind_pr0.o(.text) for __aeabi_unwind_cpp_pr0
    unwinder.o(.ARM.exidx) refers to unwinder.o(.text) for .text
    fpconst.o(c$$dinf) refers (Special) to usenofp.o(x$fpl$usenofp) for __I$use$fp
    fpconst.o(c$$dnan) refers (Special) to usenofp.o(x$fpl$usenofp) for __I$use$fp
    fpconst.o(c$$finf) refers (Special) to usenofp.o(x$fpl$usenofp) for __I$use$fp
    fpconst.o(c$$dmax) refers (Special) to usenofp.o(x$fpl$usenofp) for __I$use$fp
    retnan.o(x$fpl$retnan) refers (Special) to usenofp.o(x$fpl$usenofp) for __I$use$fp
    retnan.o(x$fpl$retnan) refers to trapv.o(x$fpl$trapveneer) for __fpl_cmpreturn
    scanf2.o(x$fpl$scanf2) refers to scanf_hexfp.o(.text) for _scanf_really_hex_real
    scanf2.o(x$fpl$scanf2) refers to scanf_infnan.o(.text) for _scanf_really_infnan
    scanf2b.o(x$fpl$scanf2) refers to scanf_hexfp.o(.text) for _scanf_really_hex_real
    scanf2b.o(x$fpl$scanf2) refers to scanf_infnan.o(.text) for _scanf_really_infnan
    fpclassify.o(i.__ARM_fpclassify) refers (Special) to usenofp.o(x$fpl$usenofp) for __I$use$fp
    narrow.o(i.__mathlib_narrow) refers (Special) to usenofp.o(x$fpl$usenofp) for __I$use$fp
    narrow.o(i.__mathlib_narrow) refers to narrow.o(i.__mathlib_tofloat) for __mathlib_tofloat
    narrow.o(i.__mathlib_tofloat) refers (Special) to usenofp.o(x$fpl$usenofp) for __I$use$fp
    narrow.o(i.__mathlib_tofloat) refers to frexp.o(i.frexp) for frexp
    narrow.o(i.__mathlib_tofloat) refers to deqf.o(x$fpl$deqf) for __aeabi_cdcmpeq
    narrow.o(i.__mathlib_tofloat) refers to d2f.o(x$fpl$d2f) for __aeabi_d2f
    narrow.o(i.__mathlib_tofloat) refers to _rserrno.o(.text) for __set_errno
    narrow.o(i.__mathlib_tofloat) refers to drleqf.o(x$fpl$drleqf) for __aeabi_cdrcmple
    narrow.o(i.__softfp___mathlib_tofloat) refers (Special) to usenofp.o(x$fpl$usenofp) for __I$use$fp
    narrow.o(i.__softfp___mathlib_tofloat) refers to narrow.o(i.__mathlib_tofloat) for __mathlib_tofloat
    term_alloc.o(.text) refers (Special) to libshutdown2.o(.ARM.Collect$$libshutdown$$0000000F) for __rt_lib_shutdown_heap_2
    term_alloc.o(.text) refers to rt_heap_descriptor.o(.text) for __rt_heap_descriptor
    term_alloc.o(.text) refers to h1_final.o(.text) for __Heap_Finalize
    scanf_hexfp.o(.text) refers to _chval.o(.text) for _chval
    scanf_hexfp.o(.text) refers to llshl.o(.text) for __aeabi_llsl
    scanf_hexfp.o(.text) refers to ldexp.o(i.__support_ldexp) for __support_ldexp
    scanf_hexfp.o(.text) refers to narrow.o(i.__mathlib_narrow) for __mathlib_narrow
    fflush.o(.text) refers to stdio.o(.text) for _fflush
    fflush.o(.text) refers to fseek.o(.text) for _fseek
    fflush.o(.text) refers to stdio_streams.o(.bss) for __stdin
    fputs.o(.text) refers to fputc.o(i.fputc) for fputc
    ftell.o(.text) refers to rt_errno_addr.o(.text) for __aeabi_errno_addr
    fflush_locked.o(.text) refers to stdio.o(.text) for _fflush
    fflush_locked.o(.text) refers to fseek.o(.text) for _fseek
    fflush_locked.o(.text) refers to fflush.o(.text) for _do_fflush
    fflush_locked.o(.text) refers to streamlock.o(.data) for _stream_list_lock
    fflush_locked.o(.text) refers to stdio_streams.o(.bss) for __stdin
    defsig_fpe_inner.o(.text) refers to defsig_general.o(.text) for __default_signal_display
    defsig_rtmem_inner.o(.text) refers to defsig_general.o(.text) for __default_signal_display
    defsig.o(CL$$defsig) refers to defsig_abrt_inner.o(.text) for __rt_SIGABRT_inner
    defsig.o(CL$$defsig) refers to defsig_fpe_inner.o(.text) for __rt_SIGFPE_inner
    defsig.o(CL$$defsig) refers to defsig_rtred_inner.o(.text) for __rt_SIGRTRED_inner
    defsig.o(CL$$defsig) refers to defsig_rtmem_inner.o(.text) for __rt_SIGRTMEM_inner
    defsig.o(CL$$defsig) refers to defsig_pvfn_inner.o(.text) for __rt_SIGPVFN_inner
    d2f.o(x$fpl$d2f) refers (Special) to usenofp.o(x$fpl$usenofp) for __I$use$fp
    d2f.o(x$fpl$d2f) refers to fretinf.o(x$fpl$fretinf) for __fpl_fretinf
    d2f.o(x$fpl$d2f) refers to dnaninf.o(x$fpl$dnaninf) for __fpl_dnaninf
    deqf.o(x$fpl$deqf) refers (Special) to usenofp.o(x$fpl$usenofp) for __I$use$fp
    deqf.o(x$fpl$deqf) refers to dnaninf.o(x$fpl$dnaninf) for __fpl_dnaninf
    deqf.o(x$fpl$deqf) refers to dcmpi.o(x$fpl$dcmpinf) for __fpl_dcmp_Inf
    drleqf.o(x$fpl$drleqf) refers (Special) to usenofp.o(x$fpl$usenofp) for __I$use$fp
    drleqf.o(x$fpl$drleqf) refers to dleqf.o(x$fpl$dleqf) for __fpl_dcmple_InfNaN
    trapv.o(x$fpl$trapveneer) refers (Special) to usenofp.o(x$fpl$usenofp) for __I$use$fp
    frexp.o(i.__softfp_frexp) refers (Special) to usenofp.o(x$fpl$usenofp) for __I$use$fp
    frexp.o(i.__softfp_frexp) refers to scalbn.o(x$fpl$scalbn) for __ARM_scalbn
    frexp.o(i.frexp) refers (Special) to usenofp.o(x$fpl$usenofp) for __I$use$fp
    frexp.o(i.frexp) refers to scalbn.o(x$fpl$scalbn) for __ARM_scalbn
    defsig_stak_inner.o(.text) refers to defsig_general.o(.text) for __default_signal_display
    defsig_cppl_inner.o(.text) refers to defsig_general.o(.text) for __default_signal_display
    defsig_segv_inner.o(.text) refers to defsig_general.o(.text) for __default_signal_display
    defsig_other.o(.text) refers to defsig_general.o(.text) for __default_signal_display
    dcmpi.o(x$fpl$dcmpinf) refers (Special) to usenofp.o(x$fpl$usenofp) for __I$use$fp
    dleqf.o(x$fpl$dleqf) refers (Special) to usenofp.o(x$fpl$usenofp) for __I$use$fp
    dleqf.o(x$fpl$dleqf) refers to dnaninf.o(x$fpl$dnaninf) for __fpl_dnaninf
    dleqf.o(x$fpl$dleqf) refers to dcmpi.o(x$fpl$dcmpinf) for __fpl_dcmp_Inf
    scalbn.o(x$fpl$scalbn) refers (Special) to usenofp.o(x$fpl$usenofp) for __I$use$fp
    scalbn.o(x$fpl$scalbn) refers to dcheck1.o(x$fpl$dcheck1) for __fpl_dcheck_NaN1
    ldexp.o(i.__softfp_ldexp) refers (Special) to usenofp.o(x$fpl$usenofp) for __I$use$fp
    ldexp.o(i.__softfp_ldexp) refers to ldexp.o(i.ldexp) for ldexp
    ldexp.o(i.__support_ldexp) refers (Special) to usenofp.o(x$fpl$usenofp) for __I$use$fp
    ldexp.o(i.__support_ldexp) refers to ldexp.o(i.ldexp) for ldexp
    ldexp.o(i.ldexp) refers (Special) to usenofp.o(x$fpl$usenofp) for __I$use$fp
    ldexp.o(i.ldexp) refers to deqf.o(x$fpl$deqf) for __aeabi_cdcmpeq
    ldexp.o(i.ldexp) refers to scalbn.o(x$fpl$scalbn) for __ARM_scalbn
    ldexp.o(i.ldexp) refers to _rserrno.o(.text) for __set_errno
    ldexp.o(i.ldexp) refers to dunder.o(i.__mathlib_dbl_underflow) for __mathlib_dbl_underflow
    ldexp.o(i.ldexp) refers to dunder.o(i.__mathlib_dbl_overflow) for __mathlib_dbl_overflow
    ldexp_x.o(i.____softfp_ldexp$lsc) refers (Special) to usenofp.o(x$fpl$usenofp) for __I$use$fp
    ldexp_x.o(i.____softfp_ldexp$lsc) refers to ldexp_x.o(i.__ldexp$lsc) for __ldexp$lsc
    ldexp_x.o(i.____support_ldexp$lsc) refers (Special) to usenofp.o(x$fpl$usenofp) for __I$use$fp
    ldexp_x.o(i.____support_ldexp$lsc) refers to ldexp_x.o(i.__ldexp$lsc) for __ldexp$lsc
    ldexp_x.o(i.__ldexp$lsc) refers (Special) to usenofp.o(x$fpl$usenofp) for __I$use$fp
    ldexp_x.o(i.__ldexp$lsc) refers to deqf.o(x$fpl$deqf) for __aeabi_cdcmpeq
    ldexp_x.o(i.__ldexp$lsc) refers to scalbn.o(x$fpl$scalbn) for __ARM_scalbn
    ldexp_x.o(i.__ldexp$lsc) refers to _rserrno.o(.text) for __set_errno
    ldexp_x.o(i.__ldexp$lsc) refers to qnan.o(.constdata) for __mathlib_zero
    dcheck1.o(x$fpl$dcheck1) refers (Special) to usenofp.o(x$fpl$usenofp) for __I$use$fp
    dcheck1.o(x$fpl$dcheck1) refers to retnan.o(x$fpl$retnan) for __fpl_return_NaN
    dunder.o(i.__mathlib_dbl_divzero) refers to ddiv.o(x$fpl$ddiv) for __aeabi_ddiv
    dunder.o(i.__mathlib_dbl_infnan) refers to scalbn.o(x$fpl$scalbn) for __ARM_scalbn
    dunder.o(i.__mathlib_dbl_infnan2) refers to daddsub_clz.o(x$fpl$dadd) for __aeabi_dadd
    dunder.o(i.__mathlib_dbl_invalid) refers to ddiv.o(x$fpl$ddiv) for __aeabi_ddiv
    dunder.o(i.__mathlib_dbl_overflow) refers to scalbn.o(x$fpl$scalbn) for __ARM_scalbn
    dunder.o(i.__mathlib_dbl_posinfnan) refers to dmul.o(x$fpl$dmul) for __aeabi_dmul
    dunder.o(i.__mathlib_dbl_underflow) refers to scalbn.o(x$fpl$scalbn) for __ARM_scalbn
    qnan.o(.constdata) refers (Special) to usenofp.o(x$fpl$usenofp) for __I$use$fp
    daddsub_clz.o(x$fpl$dadd) refers (Special) to usenofp.o(x$fpl$usenofp) for __I$use$fp
    daddsub_clz.o(x$fpl$dadd) refers to daddsub_clz.o(x$fpl$dsub) for _dsub1
    daddsub_clz.o(x$fpl$dadd) refers to dretinf.o(x$fpl$dretinf) for __fpl_dretinf
    daddsub_clz.o(x$fpl$dadd) refers to dnaninf.o(x$fpl$dnaninf) for __fpl_dnaninf
    daddsub_clz.o(x$fpl$drsb) refers (Special) to usenofp.o(x$fpl$usenofp) for __I$use$fp
    daddsub_clz.o(x$fpl$drsb) refers to daddsub_clz.o(x$fpl$dadd) for _dadd1
    daddsub_clz.o(x$fpl$drsb) refers to daddsub_clz.o(x$fpl$dsub) for _dsub1
    daddsub_clz.o(x$fpl$dsub) refers (Special) to usenofp.o(x$fpl$usenofp) for __I$use$fp
    daddsub_clz.o(x$fpl$dsub) refers to daddsub_clz.o(x$fpl$dadd) for _dadd1
    daddsub_clz.o(x$fpl$dsub) refers to dnaninf.o(x$fpl$dnaninf) for __fpl_dnaninf
    ddiv.o(x$fpl$drdiv) refers (Special) to usenofp.o(x$fpl$usenofp) for __I$use$fp
    ddiv.o(x$fpl$drdiv) refers to ddiv.o(x$fpl$ddiv) for ddiv_entry
    ddiv.o(x$fpl$ddiv) refers (Special) to usenofp.o(x$fpl$usenofp) for __I$use$fp
    ddiv.o(x$fpl$ddiv) refers to dretinf.o(x$fpl$dretinf) for __fpl_dretinf
    ddiv.o(x$fpl$ddiv) refers to dnaninf.o(x$fpl$dnaninf) for __fpl_dnaninf
    nrk_task.o(i._Z23_nrk_wait_for_schedulerv) refers to nrk.o(.data) for nrk_cur_task_TCB
    nrk_task.o(.ARM.exidx) refers to nrk_task.o(i._Z23_nrk_wait_for_schedulerv) for i._Z23_nrk_wait_for_schedulerv
    Base.cpp.lpc1768.arm.o(.constdata__ZTVN4mbed4BaseE) refers to Base.cpp.lpc1768.arm.o(.constdata__ZTIN4mbed4BaseE) for typeinfo for mbed::Base
    Base.cpp.lpc1768.arm.o(.constdata__ZTVN4mbed4BaseE) refers to Base.cpp.lpc1768.arm.o(i._ZN4mbed4BaseD1Ev) for mbed::Base::~Base()
    Base.cpp.lpc1768.arm.o(.constdata__ZTVN4mbed4BaseE) refers to Base.cpp.lpc1768.arm.o(i._ZN4mbed4BaseD0Ev) for mbed::Base::~Base__deallocating()
    Base.cpp.lpc1768.arm.o(.constdata__ZTVN4mbed4BaseE) refers to Base.cpp.lpc1768.arm.o(i._ZN4mbed4Base3rpcEPKcS2_Pc) for mbed::Base::rpc(const char*, const char*, char*)
    Base.cpp.lpc1768.arm.o(.constdata__ZTVN4mbed4BaseE) refers to Base.cpp.lpc1768.arm.o(i._ZN4mbed4Base15get_rpc_methodsEv) for mbed::Base::get_rpc_methods()
    Base.cpp.lpc1768.arm.o(t._ZN4mbed17rpc_method_callerINS_4BaseEXadL_ZNS1_11delete_selfEvEEEEvPS1_PKcPc) refers to Base.cpp.lpc1768.arm.o(.constdata) for .constdata
    Base.cpp.lpc1768.arm.o(.ARM.exidx) refers to Base.cpp.lpc1768.arm.o(t._ZN4mbed17rpc_method_callerINS_4BaseEXadL_ZNS1_11delete_selfEvEEEEvPS1_PKcPc) for t._ZN4mbed17rpc_method_callerINS_4BaseEXadL_ZNS1_11delete_selfEvEEEEvPS1_PKcPc
    Base.cpp.lpc1768.arm.o(.constdata__ZTIN4mbed4BaseE) refers to lib_rtti_impl.o(.constdata__ZTVN10__cxxabiv117__class_type_infoE) for vtable for __cxxabiv1::__class_type_info
    Base.cpp.lpc1768.arm.o(.constdata__ZTIN4mbed4BaseE) refers to Base.cpp.lpc1768.arm.o(.constdata__ZTSN4mbed4BaseE) for typeinfo name for mbed::Base
    Base.cpp.lpc1768.arm.o(.constdata__ZTVN4mbed13BaseDirHandleE) refers to Base.cpp.lpc1768.arm.o(.constdata__ZTIN4mbed13BaseDirHandleE) for typeinfo for mbed::BaseDirHandle
    Base.cpp.lpc1768.arm.o(.constdata__ZTVN4mbed13BaseDirHandleE) refers to Base.cpp.lpc1768.arm.o(i._ZN4mbed13BaseDirHandle8closedirEv) for mbed::BaseDirHandle::closedir()
    Base.cpp.lpc1768.arm.o(.constdata__ZTVN4mbed13BaseDirHandleE) refers to Base.cpp.lpc1768.arm.o(i._ZN4mbed13BaseDirHandle7readdirEv) for mbed::BaseDirHandle::readdir()
    Base.cpp.lpc1768.arm.o(.constdata__ZTVN4mbed13BaseDirHandleE) refers to Base.cpp.lpc1768.arm.o(i._ZN4mbed13BaseDirHandle9rewinddirEv) for mbed::BaseDirHandle::rewinddir()
    Base.cpp.lpc1768.arm.o(.constdata__ZTVN4mbed13BaseDirHandleE) refers to Base.cpp.lpc1768.arm.o(i._ZN4mbed13BaseDirHandle7telldirEv) for mbed::BaseDirHandle::telldir()
    Base.cpp.lpc1768.arm.o(.constdata__ZTVN4mbed13BaseDirHandleE) refers to Base.cpp.lpc1768.arm.o(i._ZN4mbed13BaseDirHandle7seekdirEl) for mbed::BaseDirHandle::seekdir(long)
    Base.cpp.lpc1768.arm.o(.constdata__ZTIN4mbed13BaseDirHandleE) refers to lib_rtti_impl.o(.constdata__ZTVN10__cxxabiv120__si_class_type_infoE) for vtable for __cxxabiv1::__si_class_type_info
    Base.cpp.lpc1768.arm.o(.constdata__ZTIN4mbed13BaseDirHandleE) refers to Base.cpp.lpc1768.arm.o(.constdata__ZTSN4mbed13BaseDirHandleE) for typeinfo name for mbed::BaseDirHandle
    Base.cpp.lpc1768.arm.o(.constdata__ZTIN4mbed13BaseDirHandleE) refers to Base.cpp.lpc1768.arm.o(.constdata__ZTIN4mbed9DirHandleE) for typeinfo for mbed::DirHandle
    Base.cpp.lpc1768.arm.o(.constdata__ZTIN4mbed9DirHandleE) refers to lib_rtti_impl.o(.constdata__ZTVN10__cxxabiv117__class_type_infoE) for vtable for __cxxabiv1::__class_type_info
    Base.cpp.lpc1768.arm.o(.constdata__ZTIN4mbed9DirHandleE) refers to Base.cpp.lpc1768.arm.o(.constdata__ZTSN4mbed9DirHandleE) for typeinfo name for mbed::DirHandle
    Base.cpp.lpc1768.arm.o(i._ZN4mbed13BaseDirHandle8closedirEv) refers to delete.o(i._ZdlPv) for operator delete (void*)
    Base.cpp.lpc1768.arm.o(.ARM.exidx) refers to Base.cpp.lpc1768.arm.o(i._ZN4mbed13BaseDirHandle8closedirEv) for i._ZN4mbed13BaseDirHandle8closedirEv
    Base.cpp.lpc1768.arm.o(i._ZN4mbed13BaseDirHandle7readdirEv) refers to rtti.o(i.__dynamic_cast) for __dynamic_cast
    Base.cpp.lpc1768.arm.o(i._ZN4mbed13BaseDirHandle7readdirEv) refers to strncpy.o(.text) for strncpy
    Base.cpp.lpc1768.arm.o(i._ZN4mbed13BaseDirHandle7readdirEv) refers to Base.cpp.lpc1768.arm.o(.data) for .data
    Base.cpp.lpc1768.arm.o(i._ZN4mbed13BaseDirHandle7readdirEv) refers to stdio.cpp.lpc1768.arm.o(.constdata__ZTIN4mbed8FileLikeE) for typeinfo for mbed::FileLike
    Base.cpp.lpc1768.arm.o(i._ZN4mbed13BaseDirHandle7readdirEv) refers to Base.cpp.lpc1768.arm.o(.constdata__ZTIN4mbed4BaseE) for typeinfo for mbed::Base
    Base.cpp.lpc1768.arm.o(i._ZN4mbed13BaseDirHandle7readdirEv) refers to Base.cpp.lpc1768.arm.o(.constdata__ZTIN4mbed14FileSystemLikeE) for typeinfo for mbed::FileSystemLike
    Base.cpp.lpc1768.arm.o(.ARM.exidx) refers to Base.cpp.lpc1768.arm.o(i._ZN4mbed13BaseDirHandle7readdirEv) for i._ZN4mbed13BaseDirHandle7readdirEv
    Base.cpp.lpc1768.arm.o(.ARM.exidx) refers to Base.cpp.lpc1768.arm.o(i._ZN4mbed13BaseDirHandle7telldirEv) for i._ZN4mbed13BaseDirHandle7telldirEv
    Base.cpp.lpc1768.arm.o(.ARM.exidx) refers to Base.cpp.lpc1768.arm.o(i._ZN4mbed13BaseDirHandle7seekdirEl) for i._ZN4mbed13BaseDirHandle7seekdirEl
    Base.cpp.lpc1768.arm.o(.ARM.exidx) refers to Base.cpp.lpc1768.arm.o(i._ZN4mbed13BaseDirHandle9rewinddirEv) for i._ZN4mbed13BaseDirHandle9rewinddirEv
    Base.cpp.lpc1768.arm.o(.constdata__ZTIN4mbed14FileSystemLikeE) refers to lib_rtti_impl.o(.constdata__ZTVN10__cxxabiv120__si_class_type_infoE) for vtable for __cxxabiv1::__si_class_type_info
    Base.cpp.lpc1768.arm.o(.constdata__ZTIN4mbed14FileSystemLikeE) refers to Base.cpp.lpc1768.arm.o(.constdata__ZTSN4mbed14FileSystemLikeE) for typeinfo name for mbed::FileSystemLike
    Base.cpp.lpc1768.arm.o(.constdata__ZTIN4mbed14FileSystemLikeE) refers to Base.cpp.lpc1768.arm.o(.constdata__ZTIN4mbed4BaseE) for typeinfo for mbed::Base
    DigitalIn.cpp.lpc1768.arm.o(.constdata__ZTVN4mbed9DigitalInE) refers to DigitalIn.cpp.lpc1768.arm.o(.constdata__ZTIN4mbed9DigitalInE) for typeinfo for mbed::DigitalIn
    DigitalIn.cpp.lpc1768.arm.o(.constdata__ZTVN4mbed9DigitalInE) refers to DigitalIn.cpp.lpc1768.arm.o(i._ZN4mbed9DigitalInD1Ev) for mbed::DigitalIn::~DigitalIn()
    DigitalIn.cpp.lpc1768.arm.o(.constdata__ZTVN4mbed9DigitalInE) refers to DigitalIn.cpp.lpc1768.arm.o(i._ZN4mbed9DigitalInD0Ev) for mbed::DigitalIn::~DigitalIn__deallocating()
    DigitalIn.cpp.lpc1768.arm.o(.constdata__ZTVN4mbed9DigitalInE) refers to Base.cpp.lpc1768.arm.o(i._ZN4mbed4Base3rpcEPKcS2_Pc) for mbed::Base::rpc(const char*, const char*, char*)
    DigitalIn.cpp.lpc1768.arm.o(.constdata__ZTVN4mbed9DigitalInE) refers to DigitalIn.cpp.lpc1768.arm.o(i._ZN4mbed9DigitalIn15get_rpc_methodsEv) for mbed::DigitalIn::get_rpc_methods()
    DigitalIn.cpp.lpc1768.arm.o(i._ZN4mbed9DigitalInD1Ev) refers to Base.cpp.lpc1768.arm.o(i._ZN4mbed4BaseD1Ev) for mbed::Base::~Base()
    DigitalIn.cpp.lpc1768.arm.o(.ARM.exidx) refers to DigitalIn.cpp.lpc1768.arm.o(i._ZN4mbed9DigitalInD1Ev) for i._ZN4mbed9DigitalInD1Ev
    DigitalIn.cpp.lpc1768.arm.o(t._ZN4mbed17rpc_method_callerIiNS_9DigitalInEXadL_ZNS1_4readEvEEEEvPNS_4BaseEPKcPc) refers to sprintf.o(.text) for sprintf
    DigitalIn.cpp.lpc1768.arm.o(t._ZN4mbed17rpc_method_callerIiNS_9DigitalInEXadL_ZNS1_4readEvEEEEvPNS_4BaseEPKcPc) refers to DigitalIn.cpp.lpc1768.arm.o(.constdata) for .constdata
    DigitalIn.cpp.lpc1768.arm.o(t._ZN4mbed17rpc_method_callerIiNS_9DigitalInEXadL_ZNS1_4readEvEEEEvPNS_4BaseEPKcPc) refers to DigitalIn.cpp.lpc1768.arm.o(.constdata___ARM__ZN4mbed12write_resultIiEEvT_Pc_anon0) for __ARM__ZN4mbed12write_resultIiEEvT_Pc_anon0
    DigitalIn.cpp.lpc1768.arm.o(.ARM.exidx) refers to DigitalIn.cpp.lpc1768.arm.o(t._ZN4mbed17rpc_method_callerIiNS_9DigitalInEXadL_ZNS1_4readEvEEEEvPNS_4BaseEPKcPc) for t._ZN4mbed17rpc_method_callerIiNS_9DigitalInEXadL_ZNS1_4readEvEEEEvPNS_4BaseEPKcPc
    DigitalIn.cpp.lpc1768.arm.o(t._ZN4mbed9rpc_superINS_4BaseEEEPKNS_10rpc_methodEPS1_) refers to Base.cpp.lpc1768.arm.o(i._ZN4mbed4Base15get_rpc_methodsEv) for mbed::Base::get_rpc_methods()
    DigitalIn.cpp.lpc1768.arm.o(.ARM.exidx) refers to DigitalIn.cpp.lpc1768.arm.o(t._ZN4mbed9rpc_superINS_4BaseEEEPKNS_10rpc_methodEPS1_) for t._ZN4mbed9rpc_superINS_4BaseEEEPKNS_10rpc_methodEPS1_
    DigitalIn.cpp.lpc1768.arm.o(t._ZN4mbed19rpc_function_callerIPKc7PinNameS2_XadL_ZNS_4Base9constructINS_9DigitalInES3_S2_EES2_T0_T1_EEEEvS2_Pc) refers to rt_memcpy_w.o(.text) for __aeabi_memcpy4
    DigitalIn.cpp.lpc1768.arm.o(t._ZN4mbed19rpc_function_callerIPKc7PinNameS2_XadL_ZNS_4Base9constructINS_9DigitalInES3_S2_EES2_T0_T1_EEEEvS2_Pc) refers to array_new.o(i._Znaj) for operator new[] (unsigned)
    DigitalIn.cpp.lpc1768.arm.o(t._ZN4mbed19rpc_function_callerIPKc7PinNameS2_XadL_ZNS_4Base9constructINS_9DigitalInES3_S2_EES2_T0_T1_EEEEvS2_Pc) refers to strtol.o(.text) for strtol
    DigitalIn.cpp.lpc1768.arm.o(t._ZN4mbed19rpc_function_callerIPKc7PinNameS2_XadL_ZNS_4Base9constructINS_9DigitalInES3_S2_EES2_T0_T1_EEEEvS2_Pc) refers to rt_memcpy_v6.o(.text) for __aeabi_memcpy
    DigitalIn.cpp.lpc1768.arm.o(t._ZN4mbed19rpc_function_callerIPKc7PinNameS2_XadL_ZNS_4Base9constructINS_9DigitalInES3_S2_EES2_T0_T1_EEEEvS2_Pc) refers to new.o(i._Znwj) for operator new(unsigned)
    DigitalIn.cpp.lpc1768.arm.o(t._ZN4mbed19rpc_function_callerIPKc7PinNameS2_XadL_ZNS_4Base9constructINS_9DigitalInES3_S2_EES2_T0_T1_EEEEvS2_Pc) refers to Base.cpp.lpc1768.arm.o(i._ZN4mbed4BaseC1EPKc) for mbed::Base::Base(const char*)
    DigitalIn.cpp.lpc1768.arm.o(t._ZN4mbed19rpc_function_callerIPKc7PinNameS2_XadL_ZNS_4Base9constructINS_9DigitalInES3_S2_EES2_T0_T1_EEEEvS2_Pc) refers to gpio_api.c.lpc1768.arm.o(i.gpio_input) for gpio_input
    DigitalIn.cpp.lpc1768.arm.o(t._ZN4mbed19rpc_function_callerIPKc7PinNameS2_XadL_ZNS_4Base9constructINS_9DigitalInES3_S2_EES2_T0_T1_EEEEvS2_Pc) refers to Base.cpp.lpc1768.arm.o(i._ZN4mbed4Base8new_nameEPS0_) for mbed::Base::new_name(mbed::Base*)
    DigitalIn.cpp.lpc1768.arm.o(t._ZN4mbed19rpc_function_callerIPKc7PinNameS2_XadL_ZNS_4Base9constructINS_9DigitalInES3_S2_EES2_T0_T1_EEEEvS2_Pc) refers to Base.cpp.lpc1768.arm.o(i._ZN4mbed4Base15register_objectEPKc) for mbed::Base::register_object(const char*)
    DigitalIn.cpp.lpc1768.arm.o(t._ZN4mbed19rpc_function_callerIPKc7PinNameS2_XadL_ZNS_4Base9constructINS_9DigitalInES3_S2_EES2_T0_T1_EEEEvS2_Pc) refers to strcpy.o(.text) for strcpy
    DigitalIn.cpp.lpc1768.arm.o(t._ZN4mbed19rpc_function_callerIPKc7PinNameS2_XadL_ZNS_4Base9constructINS_9DigitalInES3_S2_EES2_T0_T1_EEEEvS2_Pc) refers to aeabi_ctype_def.o(.constdata) for __aeabi_ctype_table_
    DigitalIn.cpp.lpc1768.arm.o(t._ZN4mbed19rpc_function_callerIPKc7PinNameS2_XadL_ZNS_4Base9constructINS_9DigitalInES3_S2_EES2_T0_T1_EEEEvS2_Pc) refers to DigitalIn.cpp.lpc1768.arm.o(.constdata___ARM__ZN4mbed10parse_pinsEPKc_anon0) for __ARM__ZN4mbed10parse_pinsEPKc_anon0
    DigitalIn.cpp.lpc1768.arm.o(t._ZN4mbed19rpc_function_callerIPKc7PinNameS2_XadL_ZNS_4Base9constructINS_9DigitalInES3_S2_EES2_T0_T1_EEEEvS2_Pc) refers to DigitalIn.cpp.lpc1768.arm.o(.constdata__ZTVN4mbed9DigitalInE) for vtable for mbed::DigitalIn
    DigitalIn.cpp.lpc1768.arm.o(.ARM.exidx) refers to DigitalIn.cpp.lpc1768.arm.o(t._ZN4mbed19rpc_function_callerIPKc7PinNameS2_XadL_ZNS_4Base9constructINS_9DigitalInES3_S2_EES2_T0_T1_EEEEvS2_Pc) for t._ZN4mbed19rpc_function_callerIPKc7PinNameS2_XadL_ZNS_4Base9constructINS_9DigitalInES3_S2_EES2_T0_T1_EEEEvS2_Pc
    DigitalIn.cpp.lpc1768.arm.o(i._ZN4mbed9DigitalInD0Ev) refers to Base.cpp.lpc1768.arm.o(i._ZN4mbed4BaseD1Ev) for mbed::Base::~Base()
    DigitalIn.cpp.lpc1768.arm.o(i._ZN4mbed9DigitalInD0Ev) refers to delete.o(i._ZdlPv) for operator delete (void*)
    DigitalIn.cpp.lpc1768.arm.o(.ARM.exidx) refers to DigitalIn.cpp.lpc1768.arm.o(i._ZN4mbed9DigitalInD0Ev) for i._ZN4mbed9DigitalInD0Ev
    DigitalIn.cpp.lpc1768.arm.o(.constdata__ZTIN4mbed9DigitalInE) refers to lib_rtti_impl.o(.constdata__ZTVN10__cxxabiv120__si_class_type_infoE) for vtable for __cxxabiv1::__si_class_type_info
    DigitalIn.cpp.lpc1768.arm.o(.constdata__ZTIN4mbed9DigitalInE) refers to DigitalIn.cpp.lpc1768.arm.o(.constdata__ZTSN4mbed9DigitalInE) for typeinfo name for mbed::DigitalIn
    DigitalIn.cpp.lpc1768.arm.o(.constdata__ZTIN4mbed9DigitalInE) refers to Base.cpp.lpc1768.arm.o(.constdata__ZTIN4mbed4BaseE) for typeinfo for mbed::Base
    stdio.cpp.lpc1768.arm.o(.constdata__ZTVN4mbed8FileLikeE) refers to stdio.cpp.lpc1768.arm.o(.constdata__ZTIN4mbed8FileLikeE) for typeinfo for mbed::FileLike
    stdio.cpp.lpc1768.arm.o(.constdata__ZTVN4mbed8FileLikeE) refers to stdio.cpp.lpc1768.arm.o(i._ZN4mbed8FileLikeD2Ev) for mbed::FileLike::~FileLike__sub_object()
    stdio.cpp.lpc1768.arm.o(.constdata__ZTVN4mbed8FileLikeE) refers to stdio.cpp.lpc1768.arm.o(i._ZN4mbed8FileLikeD0Ev) for mbed::FileLike::~FileLike__deallocating()
    stdio.cpp.lpc1768.arm.o(.constdata__ZTVN4mbed8FileLikeE) refers to Base.cpp.lpc1768.arm.o(i._ZN4mbed4Base3rpcEPKcS2_Pc) for mbed::Base::rpc(const char*, const char*, char*)
    stdio.cpp.lpc1768.arm.o(.constdata__ZTVN4mbed8FileLikeE) refers to Base.cpp.lpc1768.arm.o(i._ZN4mbed4Base15get_rpc_methodsEv) for mbed::Base::get_rpc_methods()
    stdio.cpp.lpc1768.arm.o(.constdata__ZTVN4mbed8FileLikeE) refers to pure_virt.o(i.__cxa_pure_virtual) for __cxa_pure_virtual
    stdio.cpp.lpc1768.arm.o(.constdata__ZTVN4mbed8FileLikeE) refers to stdio.cpp.lpc1768.arm.o(i._ZN4mbed10FileHandle4flenEv) for mbed::FileHandle::flen()
    stdio.cpp.lpc1768.arm.o(.ARM.exidx) refers to stdio.cpp.lpc1768.arm.o(i._ZN4mbed10FileHandle4flenEv) for i._ZN4mbed10FileHandle4flenEv
    stdio.cpp.lpc1768.arm.o(.constdata__ZTIN4mbed8FileLikeE) refers to lib_rtti_impl.o(.constdata__ZTVN10__cxxabiv121__vmi_class_type_infoE) for vtable for __cxxabiv1::__vmi_class_type_info
    stdio.cpp.lpc1768.arm.o(.constdata__ZTIN4mbed8FileLikeE) refers to stdio.cpp.lpc1768.arm.o(.constdata__ZTSN4mbed8FileLikeE) for typeinfo name for mbed::FileLike
    stdio.cpp.lpc1768.arm.o(.constdata__ZTIN4mbed8FileLikeE) refers to Base.cpp.lpc1768.arm.o(.constdata__ZTIN4mbed4BaseE) for typeinfo for mbed::Base
    stdio.cpp.lpc1768.arm.o(.constdata__ZTIN4mbed8FileLikeE) refers to stdio.cpp.lpc1768.arm.o(.constdata__ZTIN4mbed10FileHandleE) for typeinfo for mbed::FileHandle
    stdio.cpp.lpc1768.arm.o(.constdata__ZTIN4mbed10FileHandleE) refers to lib_rtti_impl.o(.constdata__ZTVN10__cxxabiv117__class_type_infoE) for vtable for __cxxabiv1::__class_type_info
    stdio.cpp.lpc1768.arm.o(.constdata__ZTIN4mbed10FileHandleE) refers to stdio.cpp.lpc1768.arm.o(.constdata__ZTSN4mbed10FileHandleE) for typeinfo name for mbed::FileHandle
    rtti.o(i.__ARM_common_get_typeid) refers to arm_bad_typeid_noexceptions.o(.text) for __cxa_bad_typeid
    rtti.o(.ARM.exidx) refers to rtti.o(i.__ARM_common_get_typeid) for i.__ARM_common_get_typeid
    rtti.o(.ARM.exidx) refers to unwind_pr0.o(.text) for __aeabi_unwind_cpp_pr0
    lib_rtti_impl.o(.constdata__ZTVN10__cxxabiv123__fundamental_type_infoE) refers to lib_rtti_impl.o(.constdata__ZTIN10__cxxabiv123__fundamental_type_infoE) for typeinfo for __cxxabiv1::__fundamental_type_info
    lib_rtti_impl.o(.constdata__ZTVN10__cxxabiv123__fundamental_type_infoE) refers to lib_rtti_impl.o(i._ZN10__cxxabiv123__fundamental_type_infoD1Ev) for __cxxabiv1::__fundamental_type_info::~__fundamental_type_info()
    lib_rtti_impl.o(.constdata__ZTVN10__cxxabiv123__fundamental_type_infoE) refers to lib_rtti_impl.o(i._ZN10__cxxabiv123__fundamental_type_infoD0Ev) for __cxxabiv1::__fundamental_type_info::~__fundamental_type_info__deallocating()
    lib_rtti_impl.o(.constdata__ZTVN10__cxxabiv117__array_type_infoE) refers to lib_rtti_impl.o(.constdata__ZTIN10__cxxabiv117__array_type_infoE) for typeinfo for __cxxabiv1::__array_type_info
    lib_rtti_impl.o(.constdata__ZTVN10__cxxabiv117__array_type_infoE) refers to lib_rtti_impl.o(i._ZN10__cxxabiv117__array_type_infoD1Ev) for __cxxabiv1::__array_type_info::~__array_type_info()
    lib_rtti_impl.o(.constdata__ZTVN10__cxxabiv117__array_type_infoE) refers to lib_rtti_impl.o(i._ZN10__cxxabiv117__array_type_infoD0Ev) for __cxxabiv1::__array_type_info::~__array_type_info__deallocating()
    lib_rtti_impl.o(.constdata__ZTVN10__cxxabiv120__function_type_infoE) refers to lib_rtti_impl.o(.constdata__ZTIN10__cxxabiv120__function_type_infoE) for typeinfo for __cxxabiv1::__function_type_info
    lib_rtti_impl.o(.constdata__ZTVN10__cxxabiv120__function_type_infoE) refers to lib_rtti_impl.o(i._ZN10__cxxabiv120__function_type_infoD1Ev) for __cxxabiv1::__function_type_info::~__function_type_info()
    lib_rtti_impl.o(.constdata__ZTVN10__cxxabiv120__function_type_infoE) refers to lib_rtti_impl.o(i._ZN10__cxxabiv120__function_type_infoD0Ev) for __cxxabiv1::__function_type_info::~__function_type_info__deallocating()
    lib_rtti_impl.o(.constdata__ZTVN10__cxxabiv116__enum_type_infoE) refers to lib_rtti_impl.o(.constdata__ZTIN10__cxxabiv116__enum_type_infoE) for typeinfo for __cxxabiv1::__enum_type_info
    lib_rtti_impl.o(.constdata__ZTVN10__cxxabiv116__enum_type_infoE) refers to lib_rtti_impl.o(i._ZN10__cxxabiv116__enum_type_infoD1Ev) for __cxxabiv1::__enum_type_info::~__enum_type_info()
    lib_rtti_impl.o(.constdata__ZTVN10__cxxabiv116__enum_type_infoE) refers to lib_rtti_impl.o(i._ZN10__cxxabiv116__enum_type_infoD0Ev) for __cxxabiv1::__enum_type_info::~__enum_type_info__deallocating()
    lib_rtti_impl.o(.constdata__ZTVN10__cxxabiv117__class_type_infoE) refers to lib_rtti_impl.o(.constdata__ZTIN10__cxxabiv117__class_type_infoE) for typeinfo for __cxxabiv1::__class_type_info
    lib_rtti_impl.o(.constdata__ZTVN10__cxxabiv117__class_type_infoE) refers to lib_rtti_impl.o(i._ZN10__cxxabiv117__class_type_infoD1Ev) for __cxxabiv1::__class_type_info::~__class_type_info()
    lib_rtti_impl.o(.constdata__ZTVN10__cxxabiv117__class_type_infoE) refers to lib_rtti_impl.o(i._ZN10__cxxabiv117__class_type_infoD0Ev) for __cxxabiv1::__class_type_info::~__class_type_info__deallocating()
    lib_rtti_impl.o(.constdata__ZTVN10__cxxabiv120__si_class_type_infoE) refers to lib_rtti_impl.o(.constdata__ZTIN10__cxxabiv120__si_class_type_infoE) for typeinfo for __cxxabiv1::__si_class_type_info
    lib_rtti_impl.o(.constdata__ZTVN10__cxxabiv120__si_class_type_infoE) refers to lib_rtti_impl.o(i._ZN10__cxxabiv120__si_class_type_infoD1Ev) for __cxxabiv1::__si_class_type_info::~__si_class_type_info()
    lib_rtti_impl.o(.constdata__ZTVN10__cxxabiv120__si_class_type_infoE) refers to lib_rtti_impl.o(i._ZN10__cxxabiv120__si_class_type_infoD0Ev) for __cxxabiv1::__si_class_type_info::~__si_class_type_info__deallocating()
    lib_rtti_impl.o(.constdata__ZTVN10__cxxabiv121__vmi_class_type_infoE) refers to lib_rtti_impl.o(.constdata__ZTIN10__cxxabiv121__vmi_class_type_infoE) for typeinfo for __cxxabiv1::__vmi_class_type_info
    lib_rtti_impl.o(.constdata__ZTVN10__cxxabiv121__vmi_class_type_infoE) refers to lib_rtti_impl.o(i._ZN10__cxxabiv121__vmi_class_type_infoD1Ev) for __cxxabiv1::__vmi_class_type_info::~__vmi_class_type_info()
    lib_rtti_impl.o(.constdata__ZTVN10__cxxabiv121__vmi_class_type_infoE) refers to lib_rtti_impl.o(i._ZN10__cxxabiv121__vmi_class_type_infoD0Ev) for __cxxabiv1::__vmi_class_type_info::~__vmi_class_type_info__deallocating()
    lib_rtti_impl.o(.constdata__ZTVN10__cxxabiv117__pbase_type_infoE) refers to lib_rtti_impl.o(.constdata__ZTIN10__cxxabiv117__pbase_type_infoE) for typeinfo for __cxxabiv1::__pbase_type_info
    lib_rtti_impl.o(.constdata__ZTVN10__cxxabiv117__pbase_type_infoE) refers to lib_rtti_impl.o(i._ZN10__cxxabiv117__pbase_type_infoD1Ev) for __cxxabiv1::__pbase_type_info::~__pbase_type_info()
    lib_rtti_impl.o(.constdata__ZTVN10__cxxabiv117__pbase_type_infoE) refers to lib_rtti_impl.o(i._ZN10__cxxabiv117__pbase_type_infoD0Ev) for __cxxabiv1::__pbase_type_info::~__pbase_type_info__deallocating()
    lib_rtti_impl.o(.constdata__ZTVN10__cxxabiv119__pointer_type_infoE) refers to lib_rtti_impl.o(.constdata__ZTIN10__cxxabiv119__pointer_type_infoE) for typeinfo for __cxxabiv1::__pointer_type_info
    lib_rtti_impl.o(.constdata__ZTVN10__cxxabiv119__pointer_type_infoE) refers to lib_rtti_impl.o(i._ZN10__cxxabiv119__pointer_type_infoD1Ev) for __cxxabiv1::__pointer_type_info::~__pointer_type_info()
    lib_rtti_impl.o(.constdata__ZTVN10__cxxabiv119__pointer_type_infoE) refers to lib_rtti_impl.o(i._ZN10__cxxabiv119__pointer_type_infoD0Ev) for __cxxabiv1::__pointer_type_info::~__pointer_type_info__deallocating()
    lib_rtti_impl.o(.constdata__ZTVN10__cxxabiv129__pointer_to_member_type_infoE) refers to lib_rtti_impl.o(.constdata__ZTIN10__cxxabiv129__pointer_to_member_type_infoE) for typeinfo for __cxxabiv1::__pointer_to_member_type_info
    lib_rtti_impl.o(.constdata__ZTVN10__cxxabiv129__pointer_to_member_type_infoE) refers to lib_rtti_impl.o(i._ZN10__cxxabiv129__pointer_to_member_type_infoD1Ev) for __cxxabiv1::__pointer_to_member_type_info::~__pointer_to_member_type_info()
    lib_rtti_impl.o(.constdata__ZTVN10__cxxabiv129__pointer_to_member_type_infoE) refers to lib_rtti_impl.o(i._ZN10__cxxabiv129__pointer_to_member_type_infoD0Ev) for __cxxabiv1::__pointer_to_member_type_info::~__pointer_to_member_type_info__deallocating()
    lib_rtti_impl.o(.ARM.exidx) refers to lib_rtti_impl.o(i._ZNSt9type_infodlEPv) for i._ZNSt9type_infodlEPv
    lib_rtti_impl.o(.constdata__ZTIN10__cxxabiv123__fundamental_type_infoE) refers to lib_rtti_impl.o(.constdata__ZTVN10__cxxabiv120__si_class_type_infoE) for vtable for __cxxabiv1::__si_class_type_info
    lib_rtti_impl.o(.constdata__ZTIN10__cxxabiv123__fundamental_type_infoE) refers to lib_rtti_impl.o(.constdata__ZTSN10__cxxabiv123__fundamental_type_infoE) for typeinfo name for __cxxabiv1::__fundamental_type_info
    lib_rtti_impl.o(.constdata__ZTIN10__cxxabiv123__fundamental_type_infoE) refers to type_info_dtor.o(.constdata__ZTISt9type_info) for typeinfo for std::type_info
    lib_rtti_impl.o(.constdata__ZTIN10__cxxabiv117__array_type_infoE) refers to lib_rtti_impl.o(.constdata__ZTVN10__cxxabiv120__si_class_type_infoE) for vtable for __cxxabiv1::__si_class_type_info
    lib_rtti_impl.o(.constdata__ZTIN10__cxxabiv117__array_type_infoE) refers to lib_rtti_impl.o(.constdata__ZTSN10__cxxabiv117__array_type_infoE) for typeinfo name for __cxxabiv1::__array_type_info
    lib_rtti_impl.o(.constdata__ZTIN10__cxxabiv117__array_type_infoE) refers to type_info_dtor.o(.constdata__ZTISt9type_info) for typeinfo for std::type_info
    lib_rtti_impl.o(.constdata__ZTIN10__cxxabiv120__function_type_infoE) refers to lib_rtti_impl.o(.constdata__ZTVN10__cxxabiv120__si_class_type_infoE) for vtable for __cxxabiv1::__si_class_type_info
    lib_rtti_impl.o(.constdata__ZTIN10__cxxabiv120__function_type_infoE) refers to lib_rtti_impl.o(.constdata__ZTSN10__cxxabiv120__function_type_infoE) for typeinfo name for __cxxabiv1::__function_type_info
    lib_rtti_impl.o(.constdata__ZTIN10__cxxabiv120__function_type_infoE) refers to type_info_dtor.o(.constdata__ZTISt9type_info) for typeinfo for std::type_info
    lib_rtti_impl.o(.constdata__ZTIN10__cxxabiv116__enum_type_infoE) refers to lib_rtti_impl.o(.constdata__ZTVN10__cxxabiv120__si_class_type_infoE) for vtable for __cxxabiv1::__si_class_type_info
    lib_rtti_impl.o(.constdata__ZTIN10__cxxabiv116__enum_type_infoE) refers to lib_rtti_impl.o(.constdata__ZTSN10__cxxabiv116__enum_type_infoE) for typeinfo name for __cxxabiv1::__enum_type_info
    lib_rtti_impl.o(.constdata__ZTIN10__cxxabiv116__enum_type_infoE) refers to type_info_dtor.o(.constdata__ZTISt9type_info) for typeinfo for std::type_info
    lib_rtti_impl.o(.constdata__ZTIN10__cxxabiv117__class_type_infoE) refers to lib_rtti_impl.o(.constdata__ZTVN10__cxxabiv120__si_class_type_infoE) for vtable for __cxxabiv1::__si_class_type_info
    lib_rtti_impl.o(.constdata__ZTIN10__cxxabiv117__class_type_infoE) refers to lib_rtti_impl.o(.constdata__ZTSN10__cxxabiv117__class_type_infoE) for typeinfo name for __cxxabiv1::__class_type_info
    lib_rtti_impl.o(.constdata__ZTIN10__cxxabiv117__class_type_infoE) refers to type_info_dtor.o(.constdata__ZTISt9type_info) for typeinfo for std::type_info
    lib_rtti_impl.o(.constdata__ZTIN10__cxxabiv120__si_class_type_infoE) refers to lib_rtti_impl.o(.constdata__ZTVN10__cxxabiv120__si_class_type_infoE) for vtable for __cxxabiv1::__si_class_type_info
    lib_rtti_impl.o(.constdata__ZTIN10__cxxabiv120__si_class_type_infoE) refers to lib_rtti_impl.o(.constdata__ZTSN10__cxxabiv120__si_class_type_infoE) for typeinfo name for __cxxabiv1::__si_class_type_info
    lib_rtti_impl.o(.constdata__ZTIN10__cxxabiv120__si_class_type_infoE) refers to lib_rtti_impl.o(.constdata__ZTIN10__cxxabiv117__class_type_infoE) for typeinfo for __cxxabiv1::__class_type_info
    lib_rtti_impl.o(.constdata__ZTIN10__cxxabiv121__vmi_class_type_infoE) refers to lib_rtti_impl.o(.constdata__ZTVN10__cxxabiv120__si_class_type_infoE) for vtable for __cxxabiv1::__si_class_type_info
    lib_rtti_impl.o(.constdata__ZTIN10__cxxabiv121__vmi_class_type_infoE) refers to lib_rtti_impl.o(.constdata__ZTSN10__cxxabiv121__vmi_class_type_infoE) for typeinfo name for __cxxabiv1::__vmi_class_type_info
    lib_rtti_impl.o(.constdata__ZTIN10__cxxabiv121__vmi_class_type_infoE) refers to lib_rtti_impl.o(.constdata__ZTIN10__cxxabiv117__class_type_infoE) for typeinfo for __cxxabiv1::__class_type_info
    lib_rtti_impl.o(.constdata__ZTIN10__cxxabiv117__pbase_type_infoE) refers to lib_rtti_impl.o(.constdata__ZTVN10__cxxabiv120__si_class_type_infoE) for vtable for __cxxabiv1::__si_class_type_info
    lib_rtti_impl.o(.constdata__ZTIN10__cxxabiv117__pbase_type_infoE) refers to lib_rtti_impl.o(.constdata__ZTSN10__cxxabiv117__pbase_type_infoE) for typeinfo name for __cxxabiv1::__pbase_type_info
    lib_rtti_impl.o(.constdata__ZTIN10__cxxabiv117__pbase_type_infoE) refers to type_info_dtor.o(.constdata__ZTISt9type_info) for typeinfo for std::type_info
    lib_rtti_impl.o(.constdata__ZTIN10__cxxabiv119__pointer_type_infoE) refers to lib_rtti_impl.o(.constdata__ZTVN10__cxxabiv120__si_class_type_infoE) for vtable for __cxxabiv1::__si_class_type_info
    lib_rtti_impl.o(.constdata__ZTIN10__cxxabiv119__pointer_type_infoE) refers to lib_rtti_impl.o(.constdata__ZTSN10__cxxabiv119__pointer_type_infoE) for typeinfo name for __cxxabiv1::__pointer_type_info
    lib_rtti_impl.o(.constdata__ZTIN10__cxxabiv119__pointer_type_infoE) refers to lib_rtti_impl.o(.constdata__ZTIN10__cxxabiv117__pbase_type_infoE) for typeinfo for __cxxabiv1::__pbase_type_info
    lib_rtti_impl.o(.constdata__ZTIN10__cxxabiv129__pointer_to_member_type_infoE) refers to lib_rtti_impl.o(.constdata__ZTVN10__cxxabiv120__si_class_type_infoE) for vtable for __cxxabiv1::__si_class_type_info
    lib_rtti_impl.o(.constdata__ZTIN10__cxxabiv129__pointer_to_member_type_infoE) refers to lib_rtti_impl.o(.constdata__ZTSN10__cxxabiv129__pointer_to_member_type_infoE) for typeinfo name for __cxxabiv1::__pointer_to_member_type_info
    lib_rtti_impl.o(.constdata__ZTIN10__cxxabiv129__pointer_to_member_type_infoE) refers to lib_rtti_impl.o(.constdata__ZTIN10__cxxabiv117__pbase_type_infoE) for typeinfo for __cxxabiv1::__pbase_type_info
    lib_rtti_impl.o(i.__ARM_common_noexcept_landing) refers to arm_exceptions_callterm.o(.text) for __cxa_call_terminate
    lib_rtti_impl.o(.ARM.exidx) refers to lib_rtti_impl.o(i.__ARM_common_noexcept_landing) for i.__ARM_common_noexcept_landing
    bad_alloc_dtor.o(.constdata__ZTVSt9bad_alloc) refers to bad_alloc_dtor.o(.constdata__ZTISt9bad_alloc) for typeinfo for std::bad_alloc
    bad_alloc_dtor.o(.constdata__ZTVSt9bad_alloc) refers to bad_alloc_dtor.o(i._ZNSt9bad_allocD1Ev) for std::bad_alloc::~bad_alloc()
    bad_alloc_dtor.o(.constdata__ZTVSt9bad_alloc) refers to bad_alloc_dtor.o(i._ZNSt9bad_allocD0Ev) for std::bad_alloc::~bad_alloc__deallocating()
    bad_alloc_dtor.o(.constdata__ZTVSt9bad_alloc) refers to bad_alloc_what.o(i._ZNKSt9bad_alloc4whatEv) for std::bad_alloc::what() const
    bad_alloc_dtor.o(.constdata__ZTISt9bad_alloc) refers to lib_rtti_impl.o(.constdata__ZTVN10__cxxabiv120__si_class_type_infoE) for vtable for __cxxabiv1::__si_class_type_info
    bad_alloc_dtor.o(.constdata__ZTISt9bad_alloc) refers to bad_alloc_dtor.o(.constdata__ZTSSt9bad_alloc) for typeinfo name for std::bad_alloc
    bad_alloc_dtor.o(.constdata__ZTISt9bad_alloc) refers to exception_dtor.o(.constdata__ZTISt9exception) for typeinfo for std::exception
    type_info_dtor.o(.constdata__ZTVSt9type_info) refers to type_info_dtor.o(.constdata__ZTISt9type_info) for typeinfo for std::type_info
    type_info_dtor.o(.constdata__ZTVSt9type_info) refers to type_info_dtor.o(i._ZNSt9type_infoD1Ev) for std::type_info::~type_info()
    type_info_dtor.o(.constdata__ZTVSt9type_info) refers to type_info_dtor.o(i._ZNSt9type_infoD0Ev) for std::type_info::~type_info__deallocating()
    type_info_dtor.o(.constdata__ZTISt9type_info) refers to lib_rtti_impl.o(.constdata__ZTVN10__cxxabiv117__class_type_infoE) for vtable for __cxxabiv1::__class_type_info
    type_info_dtor.o(.constdata__ZTISt9type_info) refers to type_info_dtor.o(.constdata__ZTSSt9type_info) for typeinfo name for std::type_info
    exception_dtor.o(.constdata__ZTVSt9exception) refers to exception_dtor.o(.constdata__ZTISt9exception) for typeinfo for std::exception
    exception_dtor.o(.constdata__ZTVSt9exception) refers to exception_dtor.o(i._ZNSt9exceptionD1Ev) for std::exception::~exception()
    exception_dtor.o(.constdata__ZTVSt9exception) refers to exception_dtor.o(i._ZNSt9exceptionD0Ev) for std::exception::~exception__deallocating()
    exception_dtor.o(.constdata__ZTVSt9exception) refers to exception_what.o(i._ZNKSt9exception4whatEv) for std::exception::what() const
    exception_dtor.o(.constdata__ZTISt9exception) refers to lib_rtti_impl.o(.constdata__ZTVN10__cxxabiv117__class_type_infoE) for vtable for __cxxabiv1::__class_type_info
    exception_dtor.o(.constdata__ZTISt9exception) refers to exception_dtor.o(.constdata__ZTSSt9exception) for typeinfo name for std::exception


==============================================================================

Removing Unused input sections from the image.

    Removing hal_wait.o(i._Z7halWaitt), (2 bytes).
    Removing hal_wait.o(.ARM.exidx), (8 bytes).
    Removing nrk_eeprom.o(i._Z19read_eeprom_aes_keyPh), (4 bytes).
    Removing nrk_eeprom.o(i._Z19read_eeprom_channelPh), (4 bytes).
    Removing nrk_eeprom.o(i._Z20nrk_eeprom_read_bytet), (2 bytes).
    Removing nrk_eeprom.o(i._Z20write_eeprom_aes_keyPh), (4 bytes).
    Removing nrk_eeprom.o(i._Z21nrk_eeprom_write_byteth), (4 bytes).
    Removing nrk_eeprom.o(i._Z23read_eeprom_mac_addressPj), (6 bytes).
    Removing nrk_eeprom.o(i._Z26read_eeprom_load_img_pagesPh), (4 bytes).
    Removing nrk_eeprom.o(i._Z27write_eeprom_load_img_pagesPh), (4 bytes).
    Removing nrk_eeprom.o(i._Z34read_eeprom_current_image_checksumPh), (4 bytes).
    Removing nrk_eeprom.o(i._Z35write_eeprom_current_image_checksumPh), (4 bytes).
    Removing nrk_eeprom.o(.ARM.exidx), (8 bytes).
    Removing nrk_eeprom.o(.ARM.exidx), (8 bytes).
    Removing nrk_eeprom.o(.ARM.exidx), (8 bytes).
    Removing nrk_eeprom.o(.ARM.exidx), (8 bytes).
    Removing nrk_eeprom.o(.ARM.exidx), (8 bytes).
    Removing nrk_eeprom.o(.ARM.exidx), (8 bytes).
    Removing nrk_eeprom.o(.ARM.exidx), (8 bytes).
    Removing nrk_eeprom.o(.ARM.exidx), (8 bytes).
    Removing nrk_eeprom.o(.ARM.exidx), (8 bytes).
    Removing nrk_eeprom.o(.ARM.exidx), (8 bytes).
    Removing ulib.o(i._Z11nrk_kprintfPKc), (2 bytes).
    Removing ulib.o(i._Z11setup_uart2t), (56 bytes).
    Removing ulib.o(i._Z11setup_uart3j), (56 bytes).
    Removing ulib.o(i._Z12nrk_gpio_geth), (68 bytes).
    Removing ulib.o(i._Z14CLKPWR_GetPCLKj), (44 bytes).
    Removing ulib.o(i._Z14GPIO_ReadValueh), (14 bytes).
    Removing ulib.o(i._Z14nrk_get_buttonh), (2 bytes).
    Removing ulib.o(i._Z14nrk_setup_uartj), (4 bytes).
    Removing ulib.o(i._Z16nrk_gpio_pullupsh), (4 bytes).
    Removing ulib.o(i._Z17CLKPWR_GetPCLKSELj), (32 bytes).
    Removing ulib.o(i._Z17uart_set_divisorsP16LPC_UART_TypeDefj), (336 bytes).
    Removing ulib.o(i._Z18nrk_gpio_directionjh), (70 bytes).
    Removing ulib.o(i._Z19nrk_uart_data_readyh), (40 bytes).
    Removing ulib.o(i._Z21UART_ConfigStructInitP13UART_CFG_Type), (18 bytes).
    Removing ulib.o(i._Z22nrk_uart_rx_signal_getv), (6 bytes).
    Removing ulib.o(i._Z5getc2v), (16 bytes).
    Removing ulib.o(i._Z5getc3v), (16 bytes).
    Removing ulib.o(i._Z5putc2c), (16 bytes).
    Removing ulib.o(i._Z5putc3c), (16 bytes).
    Removing ulib.o(i._Z9UART_InitP16LPC_UART_TypeDefP13UART_CFG_Type), (208 bytes).
    Removing ulib.o(.ARM.exidx), (8 bytes).
    Removing ulib.o(.ARM.exidx), (8 bytes).
    Removing ulib.o(.ARM.exidx), (8 bytes).
    Removing ulib.o(.ARM.exidx), (8 bytes).
    Removing ulib.o(.ARM.exidx), (8 bytes).
    Removing ulib.o(.ARM.exidx), (8 bytes).
    Removing ulib.o(.ARM.exidx), (8 bytes).
    Removing ulib.o(.ARM.exidx), (8 bytes).
    Removing ulib.o(.ARM.exidx), (8 bytes).
    Removing ulib.o(.ARM.exidx), (8 bytes).
    Removing ulib.o(.ARM.exidx), (8 bytes).
    Removing ulib.o(.ARM.exidx), (8 bytes).
    Removing ulib.o(.ARM.exidx), (8 bytes).
    Removing ulib.o(.ARM.exidx), (8 bytes).
    Removing ulib.o(.ARM.exidx), (8 bytes).
    Removing ulib.o(.ARM.exidx), (8 bytes).
    Removing ulib.o(.ARM.exidx), (8 bytes).
    Removing ulib.o(.ARM.exidx), (8 bytes).
    Removing ulib.o(.ARM.exidx), (8 bytes).
    Removing ulib.o(.ARM.exidx), (8 bytes).
    Removing ulib.o(.ARM.exidx), (8 bytes).
    Removing ulib.o(.ARM.exidx), (8 bytes).
    Removing ulib.o(.ARM.exidx), (8 bytes).
    Removing ulib.o(.ARM.exidx), (8 bytes).
    Removing ulib.o(.ARM.exidx), (8 bytes).
    Removing ulib.o(.ARM.exidx), (8 bytes).
    Removing ulib.o(.ARM.exidx), (8 bytes).
    Removing ulib.o(.ARM.exidx), (8 bytes).
    Removing ulib.o(.ARM.exidx), (8 bytes).
    Removing ulib.o(.ARM.exidx), (8 bytes).
    Removing ulib.o(.ARM.exidx), (8 bytes).
    Removing ulib.o(.ARM.exidx), (8 bytes).
    Removing ulib.o(.ARM.exidx), (8 bytes).
    Removing ulib.o(.ARM.exidx), (8 bytes).
    Removing ulib.o(.ARM.exidx), (8 bytes).
    Removing ulib.o(.ARM.exidx), (8 bytes).
    Removing ulib.o(.ARM.exidx), (8 bytes).
    Removing ulib.o(.ARM.exidx), (8 bytes).
    Removing ulib.o(.ARM.exidx), (8 bytes).
    Removing ulib.o(.ARM.exidx), (8 bytes).
    Removing ulib.o(.ARM.exidx), (8 bytes).
    Removing nrk_cpu.o(i._Z16nrk_battery_savev), (2 bytes).
    Removing nrk_cpu.o(i._Z8nrk_idlev), (4 bytes).
    Removing nrk_cpu.o(i._Z9nrk_sleepv), (4 bytes).
    Removing nrk_cpu.o(.ARM.exidx), (8 bytes).
    Removing nrk_cpu.o(.ARM.exidx), (8 bytes).
    Removing nrk_cpu.o(.ARM.exidx), (8 bytes).
    Removing nrk_cpu.o(.ARM.exidx), (8 bytes).
    Removing nrk_cpu.o(.ARM.exidx), (8 bytes).
    Removing nrk_cpu.o(.ARM.exidx), (8 bytes).
    Removing nrk_cpu.o(.ARM.exidx), (8 bytes).
    Removing nrk_cpu.o(.ARM.exidx), (8 bytes).
    Removing nrk_cpu.o(.ARM.exidx), (8 bytes).
    Removing nrk_ext_int.o(i._Z18nrk_ext_int_enableh), (4 bytes).
    Removing nrk_ext_int.o(i._Z19nrk_ext_int_disableh), (4 bytes).
    Removing nrk_ext_int.o(i._Z21nrk_ext_int_configurehhPv), (4 bytes).
    Removing nrk_ext_int.o(.ARM.exidx), (8 bytes).
    Removing nrk_ext_int.o(.ARM.exidx), (8 bytes).
    Removing nrk_ext_int.o(.ARM.exidx), (8 bytes).
    Removing nrk_ext_int.o(.data), (4 bytes).
    Removing nrk_ext_int.o(.data), (4 bytes).
    Removing nrk_ext_int.o(.data), (4 bytes).
    Removing nrk_ext_int.o(.data), (4 bytes).
    Removing nrk_status.o(i._Z18_nrk_startup_errorv), (100 bytes).
    Removing nrk_status.o(.ARM.exidx), (8 bytes).
    Removing nrk_timer.o(i._Z17_nrk_os_timer_seth), (2 bytes).
    Removing nrk_timer.o(i._Z18_nrk_os_timer_stopv), (2 bytes).
    Removing nrk_timer.o(i._Z18nrk_timer_int_readh), (4 bytes).
    Removing nrk_timer.o(i._Z18nrk_timer_int_stoph), (6 bytes).
    Removing nrk_timer.o(i._Z19nrk_timer_int_reseth), (6 bytes).
    Removing nrk_timer.o(i._Z19nrk_timer_int_starth), (6 bytes).
    Removing nrk_timer.o(i._Z23nrk_timer_int_configurehttPv), (6 bytes).
    Removing nrk_timer.o(i._Z26_nrk_high_speed_timer_stopv), (2 bytes).
    Removing nrk_timer.o(i._Z27_nrk_high_speed_timer_startv), (2 bytes).
    Removing nrk_timer.o(.ARM.exidx), (8 bytes).
    Removing nrk_timer.o(.ARM.exidx), (8 bytes).
    Removing nrk_timer.o(.ARM.exidx), (8 bytes).
    Removing nrk_timer.o(.ARM.exidx), (8 bytes).
    Removing nrk_timer.o(.ARM.exidx), (8 bytes).
    Removing nrk_timer.o(.ARM.exidx), (8 bytes).
    Removing nrk_timer.o(.ARM.exidx), (8 bytes).
    Removing nrk_timer.o(.ARM.exidx), (8 bytes).
    Removing nrk_timer.o(.ARM.exidx), (8 bytes).
    Removing nrk_timer.o(.ARM.exidx), (8 bytes).
    Removing nrk_timer.o(.ARM.exidx), (8 bytes).
    Removing nrk_timer.o(.ARM.exidx), (8 bytes).
    Removing nrk_timer.o(.ARM.exidx), (8 bytes).
    Removing nrk_timer.o(.ARM.exidx), (8 bytes).
    Removing nrk_timer.o(.ARM.exidx), (8 bytes).
    Removing nrk_timer.o(.ARM.exidx), (8 bytes).
    Removing nrk_timer.o(.ARM.exidx), (8 bytes).
    Removing nrk_timer.o(.ARM.exidx), (8 bytes).
    Removing nrk_timer.o(.ARM.exidx), (8 bytes).
    Removing nrk_timer.o(.ARM.exidx), (8 bytes).
    Removing nrk_timer.o(.ARM.exidx), (8 bytes).
    Removing nrk_timer.o(.ARM.exidx), (8 bytes).
    Removing nrk_watchdog.o(i._Z18nrk_watchdog_checkv), (28 bytes).
    Removing nrk_watchdog.o(i._Z19nrk_watchdog_enablev), (56 bytes).
    Removing nrk_watchdog.o(i._Z20nrk_watchdog_disablev), (2 bytes).
    Removing nrk_watchdog.o(.ARM.exidx), (8 bytes).
    Removing nrk_watchdog.o(.ARM.exidx), (8 bytes).
    Removing nrk_watchdog.o(.ARM.exidx), (8 bytes).
    Removing nrk.o(i._Z11nrk_versionv), (4 bytes).
    Removing nrk.o(i._Z8nrk_haltv), (4 bytes).
    Removing nrk.o(.ARM.exidx), (8 bytes).
    Removing nrk.o(.ARM.exidx), (8 bytes).
    Removing nrk.o(.ARM.exidx), (8 bytes).
    Removing nrk.o(.ARM.exidx), (8 bytes).
    Removing nrk.o(.ARM.exidx), (8 bytes).
    Removing nrk.o(.ARM.exidx), (8 bytes).
    Removing nrk.o(.ARM.exidx), (8 bytes).
    Removing nrk.o(.ARM.exidx), (8 bytes).
    Removing nrk.o(.data), (1 bytes).
    Removing nrk.o(.data), (6 bytes).
    Removing nrk_driver.o(i._Z14nrk_get_statushh), (52 bytes).
    Removing nrk_driver.o(i._Z14nrk_set_statushhh), (52 bytes).
    Removing nrk_driver.o(i._Z19nrk_register_driverPFhhhPhhEh), (40 bytes).
    Removing nrk_driver.o(i._Z8nrk_openhh), (100 bytes).
    Removing nrk_driver.o(i._Z8nrk_readhPhh), (52 bytes).
    Removing nrk_driver.o(i._Z9nrk_closeh), (52 bytes).
    Removing nrk_driver.o(i._Z9nrk_writehPhh), (52 bytes).
    Removing nrk_driver.o(.ARM.exidx), (8 bytes).
    Removing nrk_driver.o(.ARM.exidx), (8 bytes).
    Removing nrk_driver.o(.ARM.exidx), (8 bytes).
    Removing nrk_driver.o(.ARM.exidx), (8 bytes).
    Removing nrk_driver.o(.ARM.exidx), (8 bytes).
    Removing nrk_driver.o(.ARM.exidx), (8 bytes).
    Removing nrk_driver.o(.ARM.exidx), (8 bytes).
    Removing nrk_driver.o(.data), (12 bytes).
    Removing nrk_error.o(i._Z10blink_dashv), (34 bytes).
    Removing nrk_error.o(i._Z13nrk_errno_getv), (12 bytes).
    Removing nrk_error.o(i._Z13nrk_error_getPhS_), (24 bytes).
    Removing nrk_error.o(i._Z15nrk_error_printv), (800 bytes).
    Removing nrk_error.o(i._Z22blink_morse_code_errorh), (216 bytes).
    Removing nrk_error.o(i._Z5pausev), (40 bytes).
    Removing nrk_error.o(i._Z9blink_dotv), (26 bytes).
    Removing nrk_error.o(.ARM.exidx), (8 bytes).
    Removing nrk_error.o(.ARM.exidx), (8 bytes).
    Removing nrk_error.o(.ARM.exidx), (8 bytes).
    Removing nrk_error.o(.ARM.exidx), (8 bytes).
    Removing nrk_error.o(.ARM.exidx), (8 bytes).
    Removing nrk_error.o(.ARM.exidx), (8 bytes).
    Removing nrk_error.o(.ARM.exidx), (8 bytes).
    Removing nrk_error.o(.ARM.exidx), (8 bytes).
    Removing nrk_error.o(.ARM.exidx), (8 bytes).
    Removing nrk_error.o(.ARM.exidx), (8 bytes).
    Removing nrk_events.o(i._Z12nrk_sem_pendP14semaphore_type), (108 bytes).
    Removing nrk_events.o(i._Z12nrk_sem_postP14semaphore_type), (140 bytes).
    Removing nrk_events.o(i._Z13nrk_sem_queryP14semaphore_type), (48 bytes).
    Removing nrk_events.o(i._Z14nrk_sem_createhh), (64 bytes).
    Removing nrk_events.o(i._Z14nrk_sem_deleteP14semaphore_type), (64 bytes).
    Removing nrk_events.o(i._Z17nrk_signal_deletea), (120 bytes).
    Removing nrk_events.o(i._Z21nrk_signal_unregistera), (40 bytes).
    Removing nrk_events.o(i._Z22nrk_get_resource_indexP14semaphore_type), (36 bytes).
    Removing nrk_events.o(i._Z30nrk_signal_get_registered_maskv), (12 bytes).
    Removing nrk_events.o(.ARM.exidx), (8 bytes).
    Removing nrk_events.o(.ARM.exidx), (8 bytes).
    Removing nrk_events.o(.ARM.exidx), (8 bytes).
    Removing nrk_events.o(.ARM.exidx), (8 bytes).
    Removing nrk_events.o(.ARM.exidx), (8 bytes).
    Removing nrk_events.o(.ARM.exidx), (8 bytes).
    Removing nrk_events.o(.ARM.exidx), (8 bytes).
    Removing nrk_events.o(.ARM.exidx), (8 bytes).
    Removing nrk_events.o(.ARM.exidx), (8 bytes).
    Removing nrk_events.o(.ARM.exidx), (8 bytes).
    Removing nrk_events.o(.ARM.exidx), (8 bytes).
    Removing nrk_events.o(.ARM.exidx), (8 bytes).
    Removing nrk_events.o(.ARM.exidx), (8 bytes).
    Removing nrk_idle_task.o(.ARM.exidx), (8 bytes).
    Removing nrk_scheduler.o(.ARM.exidx), (8 bytes).
    Removing nrk_scheduler.o(.data), (1 bytes).
    Removing nrk_stack_check.o(i._Z15dump_stack_infov), (248 bytes).
    Removing nrk_stack_check.o(i._Z19nrk_stack_check_pida), (4 bytes).
    Removing nrk_stack_check.o(.ARM.exidx), (8 bytes).
    Removing nrk_stack_check.o(.ARM.exidx), (8 bytes).
    Removing nrk_stack_check.o(.ARM.exidx), (8 bytes).
    Removing nrk_task.o(i._Z11nrk_get_pidv), (12 bytes).
    Removing nrk_task.o(i._Z14nrk_wait_tickst), (72 bytes).
    Removing nrk_task.o(i._Z14nrk_wait_until10nrk_time_t), (50 bytes).
    Removing nrk_task.o(i._Z16nrk_print_readyQv), (20 bytes).
    Removing nrk_task.o(i._Z18nrk_terminate_taskv), (32 bytes).
    Removing nrk_task.o(i._Z19nrk_set_next_wakeup10nrk_time_t), (48 bytes).
    Removing nrk_task.o(.ARM.exidx), (8 bytes).
    Removing nrk_task.o(.ARM.exidx), (8 bytes).
    Removing nrk_task.o(.ARM.exidx), (8 bytes).
    Removing nrk_task.o(.ARM.exidx), (8 bytes).
    Removing nrk_task.o(.ARM.exidx), (8 bytes).
    Removing nrk_task.o(.ARM.exidx), (8 bytes).
    Removing nrk_task.o(.ARM.exidx), (8 bytes).
    Removing nrk_task.o(.ARM.exidx), (8 bytes).
    Removing nrk_task.o(.ARM.exidx), (8 bytes).
    Removing nrk_task.o(.ARM.exidx), (8 bytes).
    Removing nrk_task.o(.ARM.exidx), (8 bytes).
    Removing nrk_task.o(.ARM.exidx), (8 bytes).
    Removing nrk_task.o(.ARM.exidx), (8 bytes).
    Removing nrk_task.o(.ARM.exidx), (8 bytes).
    Removing nrk_task.o(.ARM.exidx), (8 bytes).
    Removing nrk_time.o(i._Z12nrk_time_addP10nrk_time_tS_S_), (20 bytes).
    Removing nrk_time.o(i._Z12nrk_time_getP10nrk_time_t), (68 bytes).
    Removing nrk_time.o(i._Z12nrk_time_setjj), (12 bytes).
    Removing nrk_time.o(i._Z12nrk_time_subP10nrk_time_tS_S_), (64 bytes).
    Removing nrk_time.o(i._Z18_nrk_ticks_to_timej), (32 bytes).
    Removing nrk_time.o(i._Z22nrk_time_compact_nanosP10nrk_time_t), (28 bytes).
    Removing nrk_time.o(i._Z23_nrk_time_to_ticks_longP10nrk_time_t), (56 bytes).
    Removing nrk_time.o(.ARM.exidx), (8 bytes).
    Removing nrk_time.o(.ARM.exidx), (8 bytes).
    Removing nrk_time.o(.ARM.exidx), (8 bytes).
    Removing nrk_time.o(.ARM.exidx), (8 bytes).
    Removing nrk_time.o(.ARM.exidx), (8 bytes).
    Removing nrk_time.o(.ARM.exidx), (8 bytes).
    Removing nrk_time.o(.ARM.exidx), (8 bytes).
    Removing nrk_time.o(.ARM.exidx), (8 bytes).
    Removing adc_driver.o(i._Z11get_adc_valv), (52 bytes).
    Removing adc_driver.o(i._Z12set_adc_chanh), (84 bytes).
    Removing adc_driver.o(i._Z15dev_manager_adchhPhh), (100 bytes).
    Removing adc_driver.o(i._Z5delayv), (2 bytes).
    Removing adc_driver.o(i._Z8init_adcv), (256 bytes).
    Removing adc_driver.o(.ARM.exidx), (8 bytes).
    Removing adc_driver.o(.ARM.exidx), (8 bytes).
    Removing adc_driver.o(.ARM.exidx), (8 bytes).
    Removing adc_driver.o(.ARM.exidx), (8 bytes).
    Removing adc_driver.o(.ARM.exidx), (8 bytes).
    Removing adc_driver.o(.data), (8 bytes).
    Removing ff_basic_sensor.o(i._Z22dev_manager_ff_sensorshhPhh), (332 bytes).
    Removing ff_basic_sensor.o(.ARM.exidx), (8 bytes).
    Removing ff_basic_sensor.o(.data), (2 bytes).
    Removing mrf24j40.o(i._Z13mrf_data_modev), (52 bytes).
    Removing mrf24j40.o(i._Z13mrf_test_modev), (52 bytes).
    Removing mrf24j40.o(i._Z8mrf_wakev), (30 bytes).
    Removing mrf24j40.o(i._Z9mrf_sleepv), (22 bytes).
    Removing mrf24j40.o(.ARM.exidx), (8 bytes).
    Removing mrf24j40.o(.ARM.exidx), (8 bytes).
    Removing mrf24j40.o(.ARM.exidx), (8 bytes).
    Removing mrf24j40.o(.ARM.exidx), (8 bytes).
    Removing mrf24j40.o(.ARM.exidx), (8 bytes).
    Removing mrf24j40.o(.ARM.exidx), (8 bytes).
    Removing mrf24j40.o(.ARM.exidx), (8 bytes).
    Removing mrf24j40.o(.ARM.exidx), (8 bytes).
    Removing mrf24j40.o(.ARM.exidx), (8 bytes).
    Removing mrf24j40.o(.ARM.exidx), (8 bytes).
    Removing mrf24j40.o(.ARM.exidx), (8 bytes).
    Removing mrf24j40.o(.ARM.exidx), (8 bytes).
    Removing mrf24j40.o(.ARM.exidx), (8 bytes).
    Removing mrf24j40.o(.ARM.exidx), (8 bytes).
    Removing mrf24j40.o(.ARM.exidx), (8 bytes).
    Removing mrf24j40.o(.ARM.exidx), (8 bytes).
    Removing mrf24j40.o(.ARM.exidx), (8 bytes).
    Removing mrf24j40.o(.ARM.exidx), (8 bytes).
    Removing mrf24j40.o(.ARM.exidx), (8 bytes).
    Removing mrf24j40.o(.data), (1 bytes).
    Removing mrf24j40.o(.data), (1 bytes).
    Removing basic_rf.o(i._Z11rf_power_upv), (30 bytes).
    Removing basic_rf.o(i._Z11rf_tx_powerh), (16 bytes).
    Removing basic_rf.o(i._Z13rf_power_downv), (22 bytes).
    Removing basic_rf.o(i._Z14rf_rx_callbackP10RF_RX_INFO), (12 bytes).
    Removing basic_rf.o(i._Z14rf_set_channelh), (44 bytes).
    Removing basic_rf.o(i._Z15rf_set_cca_modeh), (30 bytes).
    Removing basic_rf.o(i._Z16rf_flush_rx_fifov), (8 bytes).
    Removing basic_rf.o(i._Z16rf_rx_set_serialv), (2 bytes).
    Removing basic_rf.o(i._Z16rf_tx_set_serialv), (2 bytes).
    Removing basic_rf.o(i._Z17rf_rx_check_fifopv), (12 bytes).
    Removing basic_rf.o(i._Z17rf_tx_tdma_packetP10RF_TX_INFOtt), (4 bytes).
    Removing basic_rf.o(i._Z18rf_security_enablev), (2 bytes).
    Removing basic_rf.o(i._Z19rf_security_disablev), (2 bytes).
    Removing basic_rf.o(i._Z19rf_security_set_keyPh), (2 bytes).
    Removing basic_rf.o(i._Z20rf_polling_rx_packetv), (4 bytes).
    Removing basic_rf.o(i._Z21rf_addr_decode_enablev), (22 bytes).
    Removing basic_rf.o(i._Z22rf_set_preamble_lengthh), (2 bytes).
    Removing basic_rf.o(i._Z25rf_addr_decode_set_my_mact), (32 bytes).
    Removing basic_rf.o(i._Z27rf_security_last_pkt_statusv), (4 bytes).
    Removing basic_rf.o(i._Z27rf_security_set_ctr_counterPh), (2 bytes).
    Removing basic_rf.o(i._Z9rf_set_rxP10RF_RX_INFOh), (56 bytes).
    Removing basic_rf.o(.ARM.exidx), (8 bytes).
    Removing basic_rf.o(.ARM.exidx), (8 bytes).
    Removing basic_rf.o(.ARM.exidx), (8 bytes).
    Removing basic_rf.o(.ARM.exidx), (8 bytes).
    Removing basic_rf.o(.ARM.exidx), (8 bytes).
    Removing basic_rf.o(.ARM.exidx), (8 bytes).
    Removing basic_rf.o(.ARM.exidx), (8 bytes).
    Removing basic_rf.o(.ARM.exidx), (8 bytes).
    Removing basic_rf.o(.ARM.exidx), (8 bytes).
    Removing basic_rf.o(.ARM.exidx), (8 bytes).
    Removing basic_rf.o(.ARM.exidx), (8 bytes).
    Removing basic_rf.o(.ARM.exidx), (8 bytes).
    Removing basic_rf.o(.ARM.exidx), (8 bytes).
    Removing basic_rf.o(.ARM.exidx), (8 bytes).
    Removing basic_rf.o(.ARM.exidx), (8 bytes).
    Removing basic_rf.o(.ARM.exidx), (8 bytes).
    Removing basic_rf.o(.ARM.exidx), (8 bytes).
    Removing basic_rf.o(.ARM.exidx), (8 bytes).
    Removing basic_rf.o(.ARM.exidx), (8 bytes).
    Removing basic_rf.o(.ARM.exidx), (8 bytes).
    Removing basic_rf.o(.ARM.exidx), (8 bytes).
    Removing basic_rf.o(.ARM.exidx), (8 bytes).
    Removing basic_rf.o(.ARM.exidx), (8 bytes).
    Removing basic_rf.o(.ARM.exidx), (8 bytes).
    Removing basic_rf.o(.ARM.exidx), (8 bytes).
    Removing basic_rf.o(.ARM.exidx), (8 bytes).
    Removing basic_rf.o(.ARM.exidx), (8 bytes).
    Removing basic_rf.o(.ARM.exidx), (8 bytes).
    Removing basic_rf.o(.ARM.exidx), (8 bytes).
    Removing basic_rf.o(.ARM.exidx), (8 bytes).
    Removing basic_rf.o(.ARM.exidx), (8 bytes).
    Removing basic_rf.o(.ARM.exidx), (8 bytes).
    Removing basic_rf.o(.ARM.exidx), (8 bytes).
    Removing basic_rf.o(.ARM.exidx), (8 bytes).
    Removing basic_rf.o(.ARM.exidx), (8 bytes).
    Removing basic_rf.o(.ARM.exidx), (8 bytes).
    Removing basic_rf.o(.ARM.exidx), (8 bytes).
    Removing basic_rf.o(.ARM.exidx), (8 bytes).
    Removing basic_rf.o(.ARM.exidx), (8 bytes).
    Removing bmac.o(i._Z11bmac_enablev), (28 bytes).
    Removing bmac.o(i._Z12bmac_disablev), (16 bytes).
    Removing bmac.o(i._Z16bmac_set_channelh), (44 bytes).
    Removing bmac.o(i._Z17bmac_rx_pkt_readyv), (20 bytes).
    Removing bmac.o(i._Z17bmac_set_rf_powerh), (20 bytes).
    Removing bmac.o(i._Z19bmac_set_cca_activeh), (12 bytes).
    Removing bmac.o(i._Z19bmac_tx_reserve_getv), (4 bytes).
    Removing bmac.o(i._Z19bmac_tx_reserve_setP10nrk_time_tt), (6 bytes).
    Removing bmac.o(i._Z20bmac_auto_ack_enablev), (10 bytes).
    Removing bmac.o(i._Z22bmac_encryption_enablev), (10 bytes).
    Removing bmac.o(i._Z22bmac_get_rx_pkt_signalv), (24 bytes).
    Removing bmac.o(i._Z23bmac_addr_decode_enablev), (10 bytes).
    Removing bmac.o(i._Z23bmac_encryption_disablev), (10 bytes).
    Removing bmac.o(i._Z23bmac_encryption_set_keyPhh), (20 bytes).
    Removing bmac.o(i._Z23bmac_tx_pkt_nonblockingPch), (48 bytes).
    Removing bmac.o(i._Z24bmac_addr_decode_disablev), (10 bytes).
    Removing bmac.o(i._Z24bmac_rx_pkt_is_encryptedv), (10 bytes).
    Removing bmac.o(i._Z25bmac_rx_failure_count_getv), (12 bytes).
    Removing bmac.o(i._Z27bmac_addr_decode_set_my_mact), (10 bytes).
    Removing bmac.o(i._Z27bmac_rx_failure_count_resetv), (16 bytes).
    Removing bmac.o(i._Z31bmac_encryption_set_ctr_counterPhh), (20 bytes).
    Removing bmac.o(.ARM.exidx), (8 bytes).
    Removing bmac.o(.ARM.exidx), (8 bytes).
    Removing bmac.o(.ARM.exidx), (8 bytes).
    Removing bmac.o(.ARM.exidx), (8 bytes).
    Removing bmac.o(.ARM.exidx), (8 bytes).
    Removing bmac.o(.ARM.exidx), (8 bytes).
    Removing bmac.o(.ARM.exidx), (8 bytes).
    Removing bmac.o(.ARM.exidx), (8 bytes).
    Removing bmac.o(.ARM.exidx), (8 bytes).
    Removing bmac.o(.ARM.exidx), (8 bytes).
    Removing bmac.o(.ARM.exidx), (8 bytes).
    Removing bmac.o(.ARM.exidx), (8 bytes).
    Removing bmac.o(.ARM.exidx), (8 bytes).
    Removing bmac.o(.ARM.exidx), (8 bytes).
    Removing bmac.o(.ARM.exidx), (8 bytes).
    Removing bmac.o(.ARM.exidx), (8 bytes).
    Removing bmac.o(.ARM.exidx), (8 bytes).
    Removing bmac.o(.ARM.exidx), (8 bytes).
    Removing bmac.o(.ARM.exidx), (8 bytes).
    Removing bmac.o(.ARM.exidx), (8 bytes).
    Removing bmac.o(.ARM.exidx), (8 bytes).
    Removing bmac.o(.ARM.exidx), (8 bytes).
    Removing bmac.o(.ARM.exidx), (8 bytes).
    Removing bmac.o(.ARM.exidx), (8 bytes).
    Removing bmac.o(.ARM.exidx), (8 bytes).
    Removing bmac.o(.ARM.exidx), (8 bytes).
    Removing bmac.o(.ARM.exidx), (8 bytes).
    Removing bmac.o(.ARM.exidx), (8 bytes).
    Removing bmac.o(.ARM.exidx), (8 bytes).
    Removing bmac.o(.ARM.exidx), (8 bytes).
    Removing bmac.o(.ARM.exidx), (8 bytes).
    Removing bmac.o(.ARM.exidx), (8 bytes).
    Removing bmac.o(.ARM.exidx), (8 bytes).
    Removing bmac.o(.ARM.exidx), (8 bytes).
    Removing bmac.o(.ARM.exidx), (8 bytes).
    Removing bmac.o(.ARM.exidx), (8 bytes).
    Removing bmac.o(.ARM.exidx), (8 bytes).
    Removing bmac.o(.ARM.exidx), (8 bytes).
    Removing bmac.o(.ARM.exidx), (8 bytes).
    Removing main.o(.ARM.exidx), (8 bytes).
    Removing main.o(.ARM.exidx), (8 bytes).
    Removing main.o(.ARM.exidx), (8 bytes).
    Removing main.o(.ARM.exidx), (8 bytes).
    Removing main.o(.ARM.exidx), (8 bytes).
    Removing main.o(.ARM.exidx), (8 bytes).
    Removing main.o(.ARM.exidx), (8 bytes).
    Removing main.o(.ARM.exidx), (8 bytes).
    Removing main.o(.bss), (16 bytes).
    Removing main.o(.bss), (12 bytes).
    Removing main.o(.data), (4 bytes).
    Removing main.o(.data), (4 bytes).
    Removing system_LPC17xx.o(i.SystemCoreClockUpdate), (256 bytes).
    Removing core_cm3.o(.emb_text), (32 bytes).
    Removing cmsis_nvic.o(i.NVIC_GetVector), (16 bytes).
    Removing cmsis_nvic.o(i.NVIC_SetVector), (56 bytes).
    Removing rtc_time.c.lpc1768.arm.o(i.set_time), (18 bytes).
    Removing rtc_time.c.lpc1768.arm.o(i.time), (16 bytes).
    Removing wait_api.c.lpc1768.arm.o(i.wait), (48 bytes).
    Removing Base.cpp.lpc1768.arm.o(i._ZN4mbed4Base11delete_selfEv), (30 bytes).
    Removing Base.cpp.lpc1768.arm.o(i._ZN4mbed4Base15get_rpc_methodsEv), (8 bytes).
    Removing Base.cpp.lpc1768.arm.o(i._ZN4mbed4Base15register_objectEPKc), (28 bytes).
    Removing Base.cpp.lpc1768.arm.o(i._ZN4mbed4Base3rpcEPKcS2_Pc), (152 bytes).
    Removing Base.cpp.lpc1768.arm.o(i._ZN4mbed4Base3rpcEPKcS2_S2_Pc), (336 bytes).
    Removing Base.cpp.lpc1768.arm.o(i._ZN4mbed4Base4nameEv), (4 bytes).
    Removing Base.cpp.lpc1768.arm.o(i._ZN4mbed4Base7opendirEv), (24 bytes).
    Removing Base.cpp.lpc1768.arm.o(i._ZN4mbed4Base8new_nameEPS0_), (32 bytes).
    Removing Base.cpp.lpc1768.arm.o(.ARM.exidx), (8 bytes).
    Removing Base.cpp.lpc1768.arm.o(.ARM.exidx), (8 bytes).
    Removing Base.cpp.lpc1768.arm.o(.ARM.exidx), (8 bytes).
    Removing Base.cpp.lpc1768.arm.o(.ARM.exidx), (8 bytes).
    Removing Base.cpp.lpc1768.arm.o(.ARM.exidx), (8 bytes).
    Removing Base.cpp.lpc1768.arm.o(.ARM.exidx), (8 bytes).
    Removing Base.cpp.lpc1768.arm.o(.ARM.exidx), (8 bytes).
    Removing Base.cpp.lpc1768.arm.o(.ARM.exidx), (8 bytes).
    Removing Base.cpp.lpc1768.arm.o(.ARM.exidx), (8 bytes).
    Removing Base.cpp.lpc1768.arm.o(.ARM.exidx), (8 bytes).
    Removing Base.cpp.lpc1768.arm.o(.ARM.exidx), (8 bytes).
    Removing Base.cpp.lpc1768.arm.o(.ARM.exidx), (8 bytes).
    Removing Base.cpp.lpc1768.arm.o(.ARM.exidx), (8 bytes).
    Removing Base.cpp.lpc1768.arm.o(.ARM.exidx), (8 bytes).
    Removing Base.cpp.lpc1768.arm.o(.constdata), (24 bytes).
    Removing Base.cpp.lpc1768.arm.o(.conststring), (7 bytes).
    Removing DigitalIn.cpp.lpc1768.arm.o(i._ZN4mbed9DigitalIn13get_rpc_classEv), (8 bytes).
    Removing DigitalIn.cpp.lpc1768.arm.o(i._ZN4mbed9DigitalIn15get_rpc_methodsEv), (8 bytes).
    Removing DigitalIn.cpp.lpc1768.arm.o(i._ZN4mbed9DigitalIn4modeE7PinMode), (6 bytes).
    Removing DigitalIn.cpp.lpc1768.arm.o(i._ZN4mbed9DigitalIn4readEv), (6 bytes).
    Removing DigitalIn.cpp.lpc1768.arm.o(.ARM.exidx), (8 bytes).
    Removing DigitalIn.cpp.lpc1768.arm.o(.ARM.exidx), (8 bytes).
    Removing DigitalIn.cpp.lpc1768.arm.o(.ARM.exidx), (8 bytes).
    Removing DigitalIn.cpp.lpc1768.arm.o(.ARM.exidx), (8 bytes).
    Removing DigitalIn.cpp.lpc1768.arm.o(.ARM.exidx), (8 bytes).
    Removing DigitalIn.cpp.lpc1768.arm.o(.ARM.exidx), (8 bytes).
    Removing DigitalIn.cpp.lpc1768.arm.o(.constdata), (24 bytes).
    Removing DigitalIn.cpp.lpc1768.arm.o(.constdata), (16 bytes).
    Removing DigitalIn.cpp.lpc1768.arm.o(.conststring), (15 bytes).
    Removing DigitalIn.cpp.lpc1768.arm.o(.conststring), (4 bytes).
    Removing DigitalIn.cpp.lpc1768.arm.o(.data), (12 bytes).
    Removing rtc_api.c.lpc1768.arm.o(i.rtc_free), (2 bytes).
    Removing rtc_api.c.lpc1768.arm.o(i.rtc_init), (36 bytes).
    Removing rtc_api.c.lpc1768.arm.o(i.rtc_read), (52 bytes).
    Removing rtc_api.c.lpc1768.arm.o(i.rtc_write), (48 bytes).
    Removing gpio_api.c.lpc1768.arm.o(i.gpio_mode), (4 bytes).
    Removing stdio.cpp.lpc1768.arm.o(i._ZN4mbed8FileLikeD0Ev), (60 bytes).
    Removing stdio.cpp.lpc1768.arm.o(i._ZN4mbed8FileLikeD2Ev), (52 bytes).
    Removing stdio.cpp.lpc1768.arm.o(i._sys_command_string), (4 bytes).
    Removing stdio.cpp.lpc1768.arm.o(i._sys_ensure), (40 bytes).
    Removing stdio.cpp.lpc1768.arm.o(i._sys_read), (64 bytes).
    Removing stdio.cpp.lpc1768.arm.o(i.closedir), (6 bytes).
    Removing stdio.cpp.lpc1768.arm.o(i.mkdir), (84 bytes).
    Removing stdio.cpp.lpc1768.arm.o(i.opendir), (84 bytes).
    Removing stdio.cpp.lpc1768.arm.o(i.readdir), (6 bytes).
    Removing stdio.cpp.lpc1768.arm.o(i.remove), (80 bytes).
    Removing stdio.cpp.lpc1768.arm.o(i.rename), (6 bytes).
    Removing stdio.cpp.lpc1768.arm.o(i.rewinddir), (6 bytes).
    Removing stdio.cpp.lpc1768.arm.o(i.seekdir), (6 bytes).
    Removing stdio.cpp.lpc1768.arm.o(i.telldir), (6 bytes).
    Removing stdio.cpp.lpc1768.arm.o(i.tmpfile), (4 bytes).
    Removing stdio.cpp.lpc1768.arm.o(i.tmpnam), (4 bytes).
    Removing stdio.cpp.lpc1768.arm.o(.ARM.exidx), (8 bytes).
    Removing stdio.cpp.lpc1768.arm.o(.ARM.exidx), (8 bytes).
    Removing stdio.cpp.lpc1768.arm.o(.ARM.exidx), (8 bytes).
    Removing stdio.cpp.lpc1768.arm.o(.ARM.exidx), (8 bytes).
    Removing stdio.cpp.lpc1768.arm.o(.ARM.exidx), (8 bytes).
    Removing stdio.cpp.lpc1768.arm.o(.ARM.exidx), (8 bytes).
    Removing stdio.cpp.lpc1768.arm.o(.ARM.exidx), (8 bytes).
    Removing stdio.cpp.lpc1768.arm.o(.ARM.exidx), (8 bytes).
    Removing stdio.cpp.lpc1768.arm.o(.ARM.exidx), (8 bytes).
    Removing stdio.cpp.lpc1768.arm.o(.ARM.exidx), (8 bytes).
    Removing stdio.cpp.lpc1768.arm.o(.ARM.exidx), (8 bytes).
    Removing stdio.cpp.lpc1768.arm.o(.ARM.exidx), (8 bytes).
    Removing stdio.cpp.lpc1768.arm.o(.ARM.exidx), (8 bytes).
    Removing stdio.cpp.lpc1768.arm.o(.ARM.exidx), (8 bytes).
    Removing stdio.cpp.lpc1768.arm.o(.ARM.exidx), (8 bytes).
    Removing stdio.cpp.lpc1768.arm.o(.ARM.exidx), (8 bytes).
    Removing stdio.cpp.lpc1768.arm.o(.ARM.exidx), (8 bytes).
    Removing stdio.cpp.lpc1768.arm.o(.ARM.exidx), (8 bytes).
    Removing stdio.cpp.lpc1768.arm.o(.ARM.exidx), (8 bytes).
    Removing stdio.cpp.lpc1768.arm.o(.ARM.exidx), (8 bytes).
    Removing stdio.cpp.lpc1768.arm.o(.ARM.exidx), (8 bytes).
    Removing stdio.cpp.lpc1768.arm.o(.ARM.exidx), (8 bytes).
    Removing timer_api.c.lpc1768.arm.o(i.timer_free), (2 bytes).
    Removing timer_api.c.lpc1768.arm.o(i.timer_stop), (10 bytes).
    Removing timer_api.c.lpc1768.arm.o(i.timer_write), (18 bytes).
    Removing serial_api.c.lpc1768.arm.o(i.serial_clear), (6 bytes).
    Removing serial_api.c.lpc1768.arm.o(i.serial_free), (2 bytes).
    Removing serial_api.c.lpc1768.arm.o(i.serial_getc), (12 bytes).
    Removing serial_api.c.lpc1768.arm.o(i.serial_interrupt), (2 bytes).
    Removing serial_api.c.lpc1768.arm.o(i.serial_readable), (8 bytes).
    Removing serial_api.c.lpc1768.arm.o(i.serial_writable), (8 bytes).
    Removing utils_api.c.lpc1768.arm.o(i.mbed_mac_address), (72 bytes).
    Removing utils_api.c.lpc1768.arm.o(i.mbed_reset), (52 bytes).
    Removing utils_api.c.lpc1768.arm.o(i.mbed_uid), (4 bytes).
    Removing semihost_api.c.lpc1768.arm.o(i.semihost_close), (12 bytes).
    Removing semihost_api.c.lpc1768.arm.o(i.semihost_ensure), (12 bytes).
    Removing semihost_api.c.lpc1768.arm.o(i.semihost_flen), (12 bytes).
    Removing semihost_api.c.lpc1768.arm.o(i.semihost_istty), (12 bytes).
    Removing semihost_api.c.lpc1768.arm.o(i.semihost_open), (24 bytes).
    Removing semihost_api.c.lpc1768.arm.o(i.semihost_read), (18 bytes).
    Removing semihost_api.c.lpc1768.arm.o(i.semihost_remove), (22 bytes).
    Removing semihost_api.c.lpc1768.arm.o(i.semihost_rename), (34 bytes).
    Removing semihost_api.c.lpc1768.arm.o(i.semihost_reset), (10 bytes).
    Removing semihost_api.c.lpc1768.arm.o(i.semihost_seek), (16 bytes).
    Removing semihost_api.c.lpc1768.arm.o(i.semihost_uid), (20 bytes).
    Removing semihost_api.c.lpc1768.arm.o(i.semihost_write), (18 bytes).
    Removing nrk_task.o(.ARM.exidx), (8 bytes).
    Removing Base.cpp.lpc1768.arm.o(t._ZN4mbed17rpc_method_callerINS_4BaseEXadL_ZNS1_11delete_selfEvEEEEvPS1_PKcPc), (40 bytes).
    Removing Base.cpp.lpc1768.arm.o(.ARM.exidx), (8 bytes).
    Removing Base.cpp.lpc1768.arm.o(.constdata__ZTVN4mbed13BaseDirHandleE), (28 bytes).
    Removing Base.cpp.lpc1768.arm.o(.constdata__ZTIN4mbed13BaseDirHandleE), (12 bytes).
    Removing Base.cpp.lpc1768.arm.o(.constdata__ZTIN4mbed9DirHandleE), (8 bytes).
    Removing Base.cpp.lpc1768.arm.o(.constdata__ZTSN4mbed13BaseDirHandleE), (23 bytes).
    Removing Base.cpp.lpc1768.arm.o(.constdata__ZTSN4mbed9DirHandleE), (18 bytes).
    Removing Base.cpp.lpc1768.arm.o(i._ZN4mbed13BaseDirHandle8closedirEv), (10 bytes).
    Removing Base.cpp.lpc1768.arm.o(.ARM.exidx), (8 bytes).
    Removing Base.cpp.lpc1768.arm.o(i._ZN4mbed13BaseDirHandle7readdirEv), (100 bytes).
    Removing Base.cpp.lpc1768.arm.o(.ARM.exidx), (8 bytes).
    Removing Base.cpp.lpc1768.arm.o(i._ZN4mbed13BaseDirHandle7telldirEv), (4 bytes).
    Removing Base.cpp.lpc1768.arm.o(.ARM.exidx), (8 bytes).
    Removing Base.cpp.lpc1768.arm.o(i._ZN4mbed13BaseDirHandle7seekdirEl), (4 bytes).
    Removing Base.cpp.lpc1768.arm.o(.ARM.exidx), (8 bytes).
    Removing Base.cpp.lpc1768.arm.o(i._ZN4mbed13BaseDirHandle9rewinddirEv), (6 bytes).
    Removing Base.cpp.lpc1768.arm.o(.ARM.exidx), (8 bytes).
    Removing DigitalIn.cpp.lpc1768.arm.o(.constdata___ARM__ZN4mbed10parse_pinsEPKc_anon0), (104 bytes).
    Removing DigitalIn.cpp.lpc1768.arm.o(.constdata___ARM__ZN4mbed12write_resultIiEEvT_Pc_anon0), (3 bytes).
    Removing DigitalIn.cpp.lpc1768.arm.o(.ARM.exidx), (8 bytes).
    Removing DigitalIn.cpp.lpc1768.arm.o(t._ZN4mbed17rpc_method_callerIiNS_9DigitalInEXadL_ZNS1_4readEvEEEEvPNS_4BaseEPKcPc), (56 bytes).
    Removing DigitalIn.cpp.lpc1768.arm.o(.ARM.exidx), (8 bytes).
    Removing DigitalIn.cpp.lpc1768.arm.o(t._ZN4mbed9rpc_superINS_4BaseEEEPKNS_10rpc_methodEPS1_), (4 bytes).
    Removing DigitalIn.cpp.lpc1768.arm.o(.ARM.exidx), (8 bytes).
    Removing DigitalIn.cpp.lpc1768.arm.o(t._ZN4mbed19rpc_function_callerIPKc7PinNameS2_XadL_ZNS_4Base9constructINS_9DigitalInES3_S2_EES2_T0_T1_EEEEvS2_Pc), (680 bytes).
    Removing DigitalIn.cpp.lpc1768.arm.o(.ARM.exidx), (8 bytes).
    Removing DigitalIn.cpp.lpc1768.arm.o(.ARM.exidx), (8 bytes).
    Removing stdio.cpp.lpc1768.arm.o(.constdata__ZTVN4mbed8FileLikeE), (60 bytes).
    Removing stdio.cpp.lpc1768.arm.o(i._ZN4mbed10FileHandle4flenEv), (58 bytes).
    Removing stdio.cpp.lpc1768.arm.o(.ARM.exidx), (8 bytes).

569 unused section(s) (total 12044 bytes) removed from the image.

==============================================================================

Image Symbol Table

    Local Symbols

    Symbol Name                              Value     Ov Type        Size  Object(Section)

    RESET                                    0x00000000   Section      196  startup_LPC17xx.o(RESET)
    ../../../clib/unwind_pr.c                0x00000000   Number         0  unwind_pr0.o ABSOLUTE
    ../../../clib/unwind_pr.c                0x00000000   Number         0  unwind_prcommon.o ABSOLUTE
    ../../../clib/unwinder.c                 0x00000000   Number         0  unwind_activity.o ABSOLUTE
    ../../../clib/unwinder.c                 0x00000000   Number         0  unwind_activity.o ABSOLUTE
    ../../../clib/unwinder.c                 0x00000000   Number         0  unwinder.o ABSOLUTE
    ../../../clib/unwinder.c                 0x00000000   Number         0  unwinder.o ABSOLUTE
    ../../../edgfe/lib_src/arm_exceptions.c  0x00000000   Number         0  arm_exceptions_support.o ABSOLUTE
    ../../../edgfe/lib_src/arm_exceptions.c  0x00000000   Number         0  arm_exceptions_callterm.o ABSOLUTE
    ../../../edgfe/lib_src/arm_exceptions.c  0x00000000   Number         0  arm_exceptions_mem.o ABSOLUTE
    ../../../edgfe/lib_src/arm_exceptions.c  0x00000000   Number         0  arm_exceptions_terminate.o ABSOLUTE
    ../../../edgfe/lib_src/arm_exceptions.c  0x00000000   Number         0  arm_exceptions_globs.o ABSOLUTE
    ../../../edgfe/lib_src/arm_noexceptions.c 0x00000000   Number         0  arm_begincatch_noexceptions.o ABSOLUTE
    ../../../edgfe/lib_src/arm_noexceptions.c 0x00000000   Number         0  arm_newhandler_noexceptions.o ABSOLUTE
    ../../../edgfe/lib_src/arm_noexceptions.c 0x00000000   Number         0  arm_callunex_noexceptions.o ABSOLUTE
    ../../../edgfe/lib_src/arm_noexceptions.c 0x00000000   Number         0  arm_bad_typeid_noexceptions.o ABSOLUTE
    ../../../edgfe/lib_src/array_del.c       0x00000000   Number         0  array_del.o ABSOLUTE
    ../../../edgfe/lib_src/array_new.c       0x00000000   Number         0  array_new.o ABSOLUTE
    ../../../edgfe/lib_src/bad_alloc.c       0x00000000   Number         0  bad_alloc_dtor.o ABSOLUTE
    ../../../edgfe/lib_src/bad_alloc.c       0x00000000   Number         0  bad_alloc_what.o ABSOLUTE
    ../../../edgfe/lib_src/delete.c          0x00000000   Number         0  delete.o ABSOLUTE
    ../../../edgfe/lib_src/exception.c       0x00000000   Number         0  exception_dtor.o ABSOLUTE
    ../../../edgfe/lib_src/exception.c       0x00000000   Number         0  exception_what.o ABSOLUTE
    ../../../edgfe/lib_src/new.c             0x00000000   Number         0  new.o ABSOLUTE
    ../../../edgfe/lib_src/pure_virt.c       0x00000000   Number         0  pure_virt.o ABSOLUTE
    ../../../edgfe/lib_src/rtti.c            0x00000000   Number         0  rtti.o ABSOLUTE
    ../../../edgfe/lib_src/typeinfo.c        0x00000000   Number         0  type_info_eq.o ABSOLUTE
    ../../../edgfe/lib_src/typeinfo.c        0x00000000   Number         0  type_info_dtor.o ABSOLUTE
    ../../../edgfe/lib_src/typeinfo.c        0x00000000   Number         0  type_info_name.o ABSOLUTE
    ../../../edgfe/lib_src/typeinfo.c        0x00000000   Number         0  lib_rtti_impl.o ABSOLUTE
    ../clib/angel/boardlib.s                 0x00000000   Number         0  boardinit2.o ABSOLUTE
    ../clib/angel/boardlib.s                 0x00000000   Number         0  boardinit3.o ABSOLUTE
    ../clib/angel/boardlib.s                 0x00000000   Number         0  boardinit1.o ABSOLUTE
    ../clib/angel/dczerorl.s                 0x00000000   Number         0  __dczerorl.o ABSOLUTE
    ../clib/angel/handlers.s                 0x00000000   Number         0  __scatter_zi.o ABSOLUTE
    ../clib/angel/kernel.s                   0x00000000   Number         0  __rtentry.o ABSOLUTE
    ../clib/angel/kernel.s                   0x00000000   Number         0  __rtentry2.o ABSOLUTE
    ../clib/angel/kernel.s                   0x00000000   Number         0  __rtentry4.o ABSOLUTE
    ../clib/angel/rt.s                       0x00000000   Number         0  rt_locale.o ABSOLUTE
    ../clib/angel/rt.s                       0x00000000   Number         0  rt_heap_descriptor_intlibspace.o ABSOLUTE
    ../clib/angel/rt.s                       0x00000000   Number         0  aeabi_ldiv0.o ABSOLUTE
    ../clib/angel/rt.s                       0x00000000   Number         0  rt_heap_descriptor.o ABSOLUTE
    ../clib/angel/rt.s                       0x00000000   Number         0  rt_ctype_table.o ABSOLUTE
    ../clib/angel/rt.s                       0x00000000   Number         0  rt_raise.o ABSOLUTE
    ../clib/angel/rt.s                       0x00000000   Number         0  rt_div0.o ABSOLUTE
    ../clib/angel/rt.s                       0x00000000   Number         0  rt_errno_addr_intlibspace.o ABSOLUTE
    ../clib/angel/rt.s                       0x00000000   Number         0  rt_locale_intlibspace.o ABSOLUTE
    ../clib/angel/rt.s                       0x00000000   Number         0  rt_errno_addr.o ABSOLUTE
    ../clib/angel/rt.s                       0x00000000   Number         0  rt_ddtor_pointer_addr_intlibspace.o ABSOLUTE
    ../clib/angel/rt.s                       0x00000000   Number         0  rt_ddtor_pointer_addr.o ABSOLUTE
    ../clib/angel/rt.s                       0x00000000   Number         0  rt_eh_globals_addr_intlibspace.o ABSOLUTE
    ../clib/angel/rt.s                       0x00000000   Number         0  rt_eh_globals_addr.o ABSOLUTE
    ../clib/angel/rt.s                       0x00000000   Number         0  rt_new_handler_addr_intlibspace.o ABSOLUTE
    ../clib/angel/rt.s                       0x00000000   Number         0  rt_new_handler_addr.o ABSOLUTE
    ../clib/angel/rt.s                       0x00000000   Number         0  aeabi_ldiv0_sigfpe.o ABSOLUTE
    ../clib/angel/scatter.s                  0x00000000   Number         0  __scatter.o ABSOLUTE
    ../clib/angel/startup.s                  0x00000000   Number         0  __main.o ABSOLUTE
    ../clib/angel/sys.s                      0x00000000   Number         0  use_no_semi.o ABSOLUTE
    ../clib/angel/sys.s                      0x00000000   Number         0  mutex_dummy.o ABSOLUTE
    ../clib/angel/sys.s                      0x00000000   Number         0  libspace.o ABSOLUTE
    ../clib/angel/sys.s                      0x00000000   Number         0  indicate_semi.o ABSOLUTE
    ../clib/angel/sysapp.c                   0x00000000   Number         0  sys_wrch.o ABSOLUTE
    ../clib/angel/sysapp.c                   0x00000000   Number         0  sys_exit.o ABSOLUTE
    ../clib/arm_runtime.c                    0x00000000   Number         0  init_aeabi.o ABSOLUTE
    ../clib/arm_runtime.c                    0x00000000   Number         0  init_aeabi.o ABSOLUTE
    ../clib/armsys.c                         0x00000000   Number         0  no_argv.o ABSOLUTE
    ../clib/armsys.c                         0x00000000   Number         0  _get_argv_nomalloc.o ABSOLUTE
    ../clib/armsys.c                         0x00000000   Number         0  _get_argv.o ABSOLUTE
    ../clib/armsys.c                         0x00000000   Number         0  argv_veneer.o ABSOLUTE
    ../clib/armsys.c                         0x00000000   Number         0  argv_veneer.o ABSOLUTE
    ../clib/assert.c                         0x00000000   Number         0  assert_stdio.o ABSOLUTE
    ../clib/assert.c                         0x00000000   Number         0  assert_puts.o ABSOLUTE
    ../clib/assert.c                         0x00000000   Number         0  assert.o ABSOLUTE
    ../clib/bigflt.c                         0x00000000   Number         0  bigflt0.o ABSOLUTE
    ../clib/btod.s                           0x00000000   Number         0  btod.o ABSOLUTE
    ../clib/compat.c                         0x00000000   Number         0  aeabi_ctype_def.o ABSOLUTE
    ../clib/compat.c                         0x00000000   Number         0  aeabi_clocks.o ABSOLUTE
    ../clib/ctype.c                          0x00000000   Number         0  isspace.o ABSOLUTE
    ../clib/fenv.c                           0x00000000   Number         0  _rserrno.o ABSOLUTE
    ../clib/heap1.c                          0x00000000   Number         0  h1_free_mt.o ABSOLUTE
    ../clib/heap1.c                          0x00000000   Number         0  h1_alloc.o ABSOLUTE
    ../clib/heap1.c                          0x00000000   Number         0  h1_extend.o ABSOLUTE
    ../clib/heap1.c                          0x00000000   Number         0  h1_final_mt.o ABSOLUTE
    ../clib/heap1.c                          0x00000000   Number         0  h1_alloc_mt.o ABSOLUTE
    ../clib/heap1.c                          0x00000000   Number         0  h1_init_mt.o ABSOLUTE
    ../clib/heap1.c                          0x00000000   Number         0  h1_extend_mt.o ABSOLUTE
    ../clib/heap1.c                          0x00000000   Number         0  h1_init.o ABSOLUTE
    ../clib/heap1.c                          0x00000000   Number         0  h1_final.o ABSOLUTE
    ../clib/heap1.c                          0x00000000   Number         0  h1_free.o ABSOLUTE
    ../clib/heap2.c                          0x00000000   Number         0  heap2.o ABSOLUTE
    ../clib/heap2.c                          0x00000000   Number         0  fdtree.o ABSOLUTE
    ../clib/heap2.c                          0x00000000   Number         0  heap2mt.o ABSOLUTE
    ../clib/heapalloc.c                      0x00000000   Number         0  term_alloc.o ABSOLUTE
    ../clib/heapalloc.c                      0x00000000   Number         0  heapstubs.o ABSOLUTE
    ../clib/heapalloc.c                      0x00000000   Number         0  init_alloc.o ABSOLUTE
    ../clib/heapalloc.c                      0x00000000   Number         0  hguard.o ABSOLUTE
    ../clib/heapalloc.c                      0x00000000   Number         0  free.o ABSOLUTE
    ../clib/heapalloc.c                      0x00000000   Number         0  maybetermalloc2.o ABSOLUTE
    ../clib/heapalloc.c                      0x00000000   Number         0  maybetermalloc2.o ABSOLUTE
    ../clib/heapalloc.c                      0x00000000   Number         0  maybetermalloc1.o ABSOLUTE
    ../clib/heapalloc.c                      0x00000000   Number         0  maybetermalloc1.o ABSOLUTE
    ../clib/heapalloc.c                      0x00000000   Number         0  hrguard.o ABSOLUTE
    ../clib/heapalloc.c                      0x00000000   Number         0  malloc.o ABSOLUTE
    ../clib/heapaux.c                        0x00000000   Number         0  heapauxi.o ABSOLUTE
    ../clib/heapaux.c                        0x00000000   Number         0  heapauxa.o ABSOLUTE
    ../clib/libinit.s                        0x00000000   Number         0  libinit.o ABSOLUTE
    ../clib/libinit.s                        0x00000000   Number         0  libshutdown2.o ABSOLUTE
    ../clib/libinit.s                        0x00000000   Number         0  libinit2.o ABSOLUTE
    ../clib/locale.c                         0x00000000   Number         0  _wcrtomb.o ABSOLUTE
    ../clib/locale.c                         0x00000000   Number         0  _mbrtowc.o ABSOLUTE
    ../clib/locale.s                         0x00000000   Number         0  lc_numeric_c.o ABSOLUTE
    ../clib/locale.s                         0x00000000   Number         0  lc_ctype_c.o ABSOLUTE
    ../clib/longlong.s                       0x00000000   Number         0  lludiv10.o ABSOLUTE
    ../clib/longlong.s                       0x00000000   Number         0  lludivv7m.o ABSOLUTE
    ../clib/longlong.s                       0x00000000   Number         0  llshl.o ABSOLUTE
    ../clib/memcpset.s                       0x00000000   Number         0  strcmpv7m.o ABSOLUTE
    ../clib/memcpset.s                       0x00000000   Number         0  strncpy.o ABSOLUTE
    ../clib/memcpset.s                       0x00000000   Number         0  rt_memcpy_w.o ABSOLUTE
    ../clib/memcpset.s                       0x00000000   Number         0  rt_memclr_w.o ABSOLUTE
    ../clib/memcpset.s                       0x00000000   Number         0  rt_memcpy_v6.o ABSOLUTE
    ../clib/memcpset.s                       0x00000000   Number         0  rt_memclr.o ABSOLUTE
    ../clib/misc.s                           0x00000000   Number         0  printf_stubs.o ABSOLUTE
    ../clib/printf.c                         0x00000000   Number         0  _sputc.o ABSOLUTE
    ../clib/printf.c                         0x00000000   Number         0  _printf_char.o ABSOLUTE
    ../clib/printf.c                         0x00000000   Number         0  _printf_char_file.o ABSOLUTE
    ../clib/printf.c                         0x00000000   Number         0  _printf_wctomb.o ABSOLUTE
    ../clib/printf.c                         0x00000000   Number         0  _printf_longlong_dec.o ABSOLUTE
    ../clib/printf.c                         0x00000000   Number         0  __2sprintf.o ABSOLUTE
    ../clib/printf.c                         0x00000000   Number         0  __2printf.o ABSOLUTE
    ../clib/printf.c                         0x00000000   Number         0  _printf_fp_infnan.o ABSOLUTE
    ../clib/printf.c                         0x00000000   Number         0  _printf_oct_int.o ABSOLUTE
    ../clib/printf.c                         0x00000000   Number         0  sprintf.o ABSOLUTE
    ../clib/printf.c                         0x00000000   Number         0  fprintf.o ABSOLUTE
    ../clib/printf.c                         0x00000000   Number         0  _printf_fp_hex.o ABSOLUTE
    ../clib/printf.c                         0x00000000   Number         0  __printf_flags_ss_wp.o ABSOLUTE
    ../clib/printf.c                         0x00000000   Number         0  __printf_ss_wp.o ABSOLUTE
    ../clib/printf.c                         0x00000000   Number         0  _printf_oct_int_ll.o ABSOLUTE
    ../clib/printf.c                         0x00000000   Number         0  __printf_flags_wp.o ABSOLUTE
    ../clib/printf.c                         0x00000000   Number         0  _printf_char_file_locked.o ABSOLUTE
    ../clib/printf.c                         0x00000000   Number         0  _printf_fp_dec.o ABSOLUTE
    ../clib/printf.c                         0x00000000   Number         0  _printf_oct_ll.o ABSOLUTE
    ../clib/printf.c                         0x00000000   Number         0  __printf_wp.o ABSOLUTE
    ../clib/printf.c                         0x00000000   Number         0  __printf_flags_ss.o ABSOLUTE
    ../clib/printf.c                         0x00000000   Number         0  __printf_ss.o ABSOLUTE
    ../clib/printf.c                         0x00000000   Number         0  __printf_flags.o ABSOLUTE
    ../clib/printf.c                         0x00000000   Number         0  _printf_pad.o ABSOLUTE
    ../clib/printf.c                         0x00000000   Number         0  _printf_hex_int_ll_ptr.o ABSOLUTE
    ../clib/printf.c                         0x00000000   Number         0  _printf_hex_ll_ptr.o ABSOLUTE
    ../clib/printf.c                         0x00000000   Number         0  _printf_hex_int_ptr.o ABSOLUTE
    ../clib/printf.c                         0x00000000   Number         0  _printf_hex_ptr.o ABSOLUTE
    ../clib/printf.c                         0x00000000   Number         0  _printf_hex_int_ll.o ABSOLUTE
    ../clib/printf.c                         0x00000000   Number         0  _printf_hex_int.o ABSOLUTE
    ../clib/printf.c                         0x00000000   Number         0  _printf_hex_ll.o ABSOLUTE
    ../clib/printf.c                         0x00000000   Number         0  _printf_truncate.o ABSOLUTE
    ../clib/printf.c                         0x00000000   Number         0  _printf_intcommon.o ABSOLUTE
    ../clib/printf.c                         0x00000000   Number         0  _printf_charcount.o ABSOLUTE
    ../clib/printf.c                         0x00000000   Number         0  _printf_dec.o ABSOLUTE
    ../clib/printf.c                         0x00000000   Number         0  _printf_str.o ABSOLUTE
    ../clib/printf.c                         0x00000000   Number         0  __printf.o ABSOLUTE
    ../clib/printf.c                         0x00000000   Number         0  noretval__2sprintf.o ABSOLUTE
    ../clib/printf.c                         0x00000000   Number         0  noretval__2printf.o ABSOLUTE
    ../clib/printf.c                         0x00000000   Number         0  _printf_wchar.o ABSOLUTE
    ../clib/printf.c                         0x00000000   Number         0  _printf_char_common.o ABSOLUTE
    ../clib/printf.c                         0x00000000   Number         0  __printf_nopercent.o ABSOLUTE
    ../clib/printf_percent.s                 0x00000000   Number         0  _printf_o.o ABSOLUTE
    ../clib/printf_percent.s                 0x00000000   Number         0  _printf_u.o ABSOLUTE
    ../clib/printf_percent.s                 0x00000000   Number         0  _printf_percent.o ABSOLUTE
    ../clib/printf_percent.s                 0x00000000   Number         0  _printf_d.o ABSOLUTE
    ../clib/printf_percent.s                 0x00000000   Number         0  _printf_x.o ABSOLUTE
    ../clib/printf_percent.s                 0x00000000   Number         0  _printf_i.o ABSOLUTE
    ../clib/printf_percent.s                 0x00000000   Number         0  _printf_c.o ABSOLUTE
    ../clib/printf_percent.s                 0x00000000   Number         0  _printf_g.o ABSOLUTE
    ../clib/printf_percent.s                 0x00000000   Number         0  _printf_a.o ABSOLUTE
    ../clib/printf_percent.s                 0x00000000   Number         0  _printf_percent_end.o ABSOLUTE
    ../clib/printf_percent.s                 0x00000000   Number         0  _printf_lli.o ABSOLUTE
    ../clib/printf_percent.s                 0x00000000   Number         0  _printf_lld.o ABSOLUTE
    ../clib/printf_percent.s                 0x00000000   Number         0  _printf_llu.o ABSOLUTE
    ../clib/printf_percent.s                 0x00000000   Number         0  _printf_s.o ABSOLUTE
    ../clib/printf_percent.s                 0x00000000   Number         0  _printf_ll.o ABSOLUTE
    ../clib/printf_percent.s                 0x00000000   Number         0  _printf_l.o ABSOLUTE
    ../clib/printf_percent.s                 0x00000000   Number         0  _printf_lc.o ABSOLUTE
    ../clib/printf_percent.s                 0x00000000   Number         0  _printf_ls.o ABSOLUTE
    ../clib/printf_percent.s                 0x00000000   Number         0  _printf_llo.o ABSOLUTE
    ../clib/printf_percent.s                 0x00000000   Number         0  _printf_llx.o ABSOLUTE
    ../clib/printf_percent.s                 0x00000000   Number         0  _printf_e.o ABSOLUTE
    ../clib/printf_percent.s                 0x00000000   Number         0  _printf_p.o ABSOLUTE
    ../clib/printf_percent.s                 0x00000000   Number         0  _printf_n.o ABSOLUTE
    ../clib/printf_percent.s                 0x00000000   Number         0  _printf_f.o ABSOLUTE
    ../clib/scanf.c                          0x00000000   Number         0  _scanf.o ABSOLUTE
    ../clib/scanf.c                          0x00000000   Number         0  _scanf_wctomb.o ABSOLUTE
    ../clib/scanf.c                          0x00000000   Number         0  _chval.o ABSOLUTE
    ../clib/scanf.c                          0x00000000   Number         0  _scanf_wstr.o ABSOLUTE
    ../clib/scanf.c                          0x00000000   Number         0  _scanf_str.o ABSOLUTE
    ../clib/scanf.c                          0x00000000   Number         0  scanf_infnan.o ABSOLUTE
    ../clib/scanf.c                          0x00000000   Number         0  scanf_hexfp.o ABSOLUTE
    ../clib/scanf.c                          0x00000000   Number         0  strtol.o ABSOLUTE
    ../clib/scanf.c                          0x00000000   Number         0  _scanf_longlong.o ABSOLUTE
    ../clib/scanf.c                          0x00000000   Number         0  _scanf_int.o ABSOLUTE
    ../clib/scanf.c                          0x00000000   Number         0  sscanf.o ABSOLUTE
    ../clib/scanf.c                          0x00000000   Number         0  _strtoul.o ABSOLUTE
    ../clib/scanf.c                          0x00000000   Number         0  _scanf_mbtowc.o ABSOLUTE
    ../clib/scanf.c                          0x00000000   Number         0  _sgetc.o ABSOLUTE
    ../clib/scanf.c                          0x00000000   Number         0  scanf_char.o ABSOLUTE
    ../clib/scanf.c                          0x00000000   Number         0  _scanf_wcharmap.o ABSOLUTE
    ../clib/scanf.c                          0x00000000   Number         0  scanf_fp.o ABSOLUTE
    ../clib/signal.c                         0x00000000   Number         0  defsig_abrt_formal.o ABSOLUTE
    ../clib/signal.c                         0x00000000   Number         0  defsig_abrt_outer.o ABSOLUTE
    ../clib/signal.c                         0x00000000   Number         0  defsig_fpe_inner.o ABSOLUTE
    ../clib/signal.c                         0x00000000   Number         0  defsig_rtmem_inner.o ABSOLUTE
    ../clib/signal.c                         0x00000000   Number         0  defsig_stak_inner.o ABSOLUTE
    ../clib/signal.c                         0x00000000   Number         0  defsig_rtmem_formal.o ABSOLUTE
    ../clib/signal.c                         0x00000000   Number         0  defsig_rtmem_outer.o ABSOLUTE
    ../clib/signal.c                         0x00000000   Number         0  defsig_rtred_inner.o ABSOLUTE
    ../clib/signal.c                         0x00000000   Number         0  defsig_fpe_formal.o ABSOLUTE
    ../clib/signal.c                         0x00000000   Number         0  defsig_cppl_inner.o ABSOLUTE
    ../clib/signal.c                         0x00000000   Number         0  defsig_fpe_outer.o ABSOLUTE
    ../clib/signal.c                         0x00000000   Number         0  defsig_abrt_inner.o ABSOLUTE
    ../clib/signal.c                         0x00000000   Number         0  defsig_general.o ABSOLUTE
    ../clib/signal.c                         0x00000000   Number         0  __raise.o ABSOLUTE
    ../clib/signal.c                         0x00000000   Number         0  defsig_segv_inner.o ABSOLUTE
    ../clib/signal.c                         0x00000000   Number         0  defsig_pvfn_inner.o ABSOLUTE
    ../clib/signal.c                         0x00000000   Number         0  defsig_rtred_formal.o ABSOLUTE
    ../clib/signal.c                         0x00000000   Number         0  defsig_rtred_outer.o ABSOLUTE
    ../clib/signal.c                         0x00000000   Number         0  defsig_other.o ABSOLUTE
    ../clib/signal.c                         0x00000000   Number         0  defsig_exit.o ABSOLUTE
    ../clib/signal.c                         0x00000000   Number         0  defsig_pvfn_formal.o ABSOLUTE
    ../clib/signal.c                         0x00000000   Number         0  defsig_pvfn_outer.o ABSOLUTE
    ../clib/signal.s                         0x00000000   Number         0  defsig.o ABSOLUTE
    ../clib/stdio.c                          0x00000000   Number         0  fseek.o ABSOLUTE
    ../clib/stdio.c                          0x00000000   Number         0  setvbuf.o ABSOLUTE
    ../clib/stdio.c                          0x00000000   Number         0  flsbuf.o ABSOLUTE
    ../clib/stdio.c                          0x00000000   Number         0  initio.o ABSOLUTE
    ../clib/stdio.c                          0x00000000   Number         0  ferror.o ABSOLUTE
    ../clib/stdio.c                          0x00000000   Number         0  fwritefast_locked.o ABSOLUTE
    ../clib/stdio.c                          0x00000000   Number         0  fwritefast.o ABSOLUTE
    ../clib/stdio.c                          0x00000000   Number         0  fopen.o ABSOLUTE
    ../clib/stdio.c                          0x00000000   Number         0  initio_locked.o ABSOLUTE
    ../clib/stdio.c                          0x00000000   Number         0  stdio_streams.o ABSOLUTE
    ../clib/stdio.c                          0x00000000   Number         0  stdio.o ABSOLUTE
    ../clib/stdio.c                          0x00000000   Number         0  fputc.o ABSOLUTE
    ../clib/stdio.c                          0x00000000   Number         0  fopen_locked.o ABSOLUTE
    ../clib/stdio.c                          0x00000000   Number         0  streamlock.o ABSOLUTE
    ../clib/stdio.c                          0x00000000   Number         0  fputc_locked.o ABSOLUTE
    ../clib/stdio.c                          0x00000000   Number         0  fflush_locked.o ABSOLUTE
    ../clib/stdio.c                          0x00000000   Number         0  fclose.o ABSOLUTE
    ../clib/stdio.c                          0x00000000   Number         0  ftell.o ABSOLUTE
    ../clib/stdio.c                          0x00000000   Number         0  fputs.o ABSOLUTE
    ../clib/stdio.c                          0x00000000   Number         0  ferror_locked.o ABSOLUTE
    ../clib/stdio.c                          0x00000000   Number         0  fflush.o ABSOLUTE
    ../clib/stdio.c                          0x00000000   Number         0  fputs_locked.o ABSOLUTE
    ../clib/stdio.c                          0x00000000   Number         0  setvbuf_locked.o ABSOLUTE
    ../clib/stdio.c                          0x00000000   Number         0  putc.o ABSOLUTE
    ../clib/stdlib.c                         0x00000000   Number         0  aeabi_atexit.o ABSOLUTE
    ../clib/stdlib.c                         0x00000000   Number         0  bsearchnoex.o ABSOLUTE
    ../clib/stdlib.c                         0x00000000   Number         0  abort.o ABSOLUTE
    ../clib/stdlib.c                         0x00000000   Number         0  rand.o ABSOLUTE
    ../clib/stdlib.c                         0x00000000   Number         0  cxa_finalize.o ABSOLUTE
    ../clib/stdlib.c                         0x00000000   Number         0  atexit_aeabi.o ABSOLUTE
    ../clib/stdlib.c                         0x00000000   Number         0  rand.o ABSOLUTE
    ../clib/string.c                         0x00000000   Number         0  strncmp.o ABSOLUTE
    ../clib/string.c                         0x00000000   Number         0  strlen.o ABSOLUTE
    ../clib/string.c                         0x00000000   Number         0  strcpy.o ABSOLUTE
    ../clib/time.c                           0x00000000   Number         0  _monlen.o ABSOLUTE
    ../clib/time.c                           0x00000000   Number         0  localtime_internal.o ABSOLUTE
    ../clib/time.c                           0x00000000   Number         0  mktime.o ABSOLUTE
    ../clib/time.c                           0x00000000   Number         0  localtime.o ABSOLUTE
    ../clib/wchar.c                          0x00000000   Number         0  flsbuf_fwide.o ABSOLUTE
    ../fplib/d2f.s                           0x00000000   Number         0  d2f.o ABSOLUTE
    ../fplib/daddsub.s                       0x00000000   Number         0  daddsub_clz.o ABSOLUTE
    ../fplib/dcheck1.s                       0x00000000   Number         0  dcheck1.o ABSOLUTE
    ../fplib/dcmpi.s                         0x00000000   Number         0  dcmpi.o ABSOLUTE
    ../fplib/ddiv.s                          0x00000000   Number         0  ddiv.o ABSOLUTE
    ../fplib/deqf.s                          0x00000000   Number         0  deqf.o ABSOLUTE
    ../fplib/dfix.s                          0x00000000   Number         0  dfix.o ABSOLUTE
    ../fplib/dleqf.s                         0x00000000   Number         0  dleqf.o ABSOLUTE
    ../fplib/dmul.s                          0x00000000   Number         0  dmul.o ABSOLUTE
    ../fplib/dnaninf.s                       0x00000000   Number         0  dnaninf.o ABSOLUTE
    ../fplib/dretinf.s                       0x00000000   Number         0  dretinf.o ABSOLUTE
    ../fplib/drleqf.s                        0x00000000   Number         0  drleqf.o ABSOLUTE
    ../fplib/f2d.s                           0x00000000   Number         0  f2d.o ABSOLUTE
    ../fplib/faddsub.s                       0x00000000   Number         0  faddsub_clz.o ABSOLUTE
    ../fplib/fcheck1.s                       0x00000000   Number         0  fcheck1.o ABSOLUTE
    ../fplib/fdiv.s                          0x00000000   Number         0  fdiv.o ABSOLUTE
    ../fplib/ffix.s                          0x00000000   Number         0  ffix.o ABSOLUTE
    ../fplib/ffixu.s                         0x00000000   Number         0  ffixu.o ABSOLUTE
    ../fplib/fflt.s                          0x00000000   Number         0  fflt_clz.o ABSOLUTE
    ../fplib/fmul.s                          0x00000000   Number         0  fmul.o ABSOLUTE
    ../fplib/fnaninf.s                       0x00000000   Number         0  fnaninf.o ABSOLUTE
    ../fplib/fpconst.s                       0x00000000   Number         0  fpconst.o ABSOLUTE
    ../fplib/fpinit.s                        0x00000000   Number         0  fpinit.o ABSOLUTE
    ../fplib/fretinf.s                       0x00000000   Number         0  fretinf.o ABSOLUTE
    ../fplib/istatus.s                       0x00000000   Number         0  istatus.o ABSOLUTE
    ../fplib/printf1.s                       0x00000000   Number         0  printf1.o ABSOLUTE
    ../fplib/printf2.s                       0x00000000   Number         0  printf2.o ABSOLUTE
    ../fplib/printf2a.s                      0x00000000   Number         0  printf2a.o ABSOLUTE
    ../fplib/printf2b.s                      0x00000000   Number         0  printf2b.o ABSOLUTE
    ../fplib/retnan.s                        0x00000000   Number         0  retnan.o ABSOLUTE
    ../fplib/scalbn.s                        0x00000000   Number         0  scalbn.o ABSOLUTE
    ../fplib/scalbnf.s                       0x00000000   Number         0  scalbnf.o ABSOLUTE
    ../fplib/scanf1.s                        0x00000000   Number         0  scanf1.o ABSOLUTE
    ../fplib/scanf2.s                        0x00000000   Number         0  scanf2.o ABSOLUTE
    ../fplib/scanf2a.s                       0x00000000   Number         0  scanf2a.o ABSOLUTE
    ../fplib/scanf2b.s                       0x00000000   Number         0  scanf2b.o ABSOLUTE
    ../fplib/trapv.s                         0x00000000   Number         0  trapv.o ABSOLUTE
    ../fplib/usenofp.s                       0x00000000   Number         0  usenofp.o ABSOLUTE
    ../mathlib/dunder.c                      0x00000000   Number         0  dunder.o ABSOLUTE
    ../mathlib/fpclassify.c                  0x00000000   Number         0  fpclassify.o ABSOLUTE
    ../mathlib/frexp.c                       0x00000000   Number         0  frexp.o ABSOLUTE
    ../mathlib/funder.c                      0x00000000   Number         0  funder.o ABSOLUTE
    ../mathlib/ldexp.c                       0x00000000   Number         0  ldexp.o ABSOLUTE
    ../mathlib/ldexp.c                       0x00000000   Number         0  ldexp_x.o ABSOLUTE
    ../mathlib/narrow.c                      0x00000000   Number         0  narrow.o ABSOLUTE
    ../mathlib/qnan.c                        0x00000000   Number         0  qnan.o ABSOLUTE
    ../mathlib/scalbnf.c                     0x00000000   Number         0  scalbnf_x.o ABSOLUTE
    ../mathlib/scalbnf.c                     0x00000000   Number         0  scalbnf.o ABSOLUTE
    dc.s                                     0x00000000   Number         0  dc.o ABSOLUTE
    mRK\NanoRk\src\drivers\platform\adc_driver.cpp 0x00000000   Number         0  adc_driver.o ABSOLUTE
    mRK\NanoRk\src\drivers\platform\ff_basic_sensor.cpp 0x00000000   Number         0  ff_basic_sensor.o ABSOLUTE
    mRK\NanoRk\src\kernel\hal\nrk_cpu.cpp    0x00000000   Number         0  nrk_cpu.o ABSOLUTE
    mRK\NanoRk\src\kernel\hal\nrk_ext_int.cpp 0x00000000   Number         0  nrk_ext_int.o ABSOLUTE
    mRK\NanoRk\src\kernel\hal\nrk_status.cpp 0x00000000   Number         0  nrk_status.o ABSOLUTE
    mRK\NanoRk\src\kernel\hal\nrk_timer.cpp  0x00000000   Number         0  nrk_timer.o ABSOLUTE
    mRK\NanoRk\src\kernel\hal\nrk_watchdog.cpp 0x00000000   Number         0  nrk_watchdog.o ABSOLUTE
    mRK\NanoRk\src\kernel\source\nrk.cpp     0x00000000   Number         0  nrk.o ABSOLUTE
    mRK\NanoRk\src\kernel\source\nrk_driver.cpp 0x00000000   Number         0  nrk_driver.o ABSOLUTE
    mRK\NanoRk\src\kernel\source\nrk_error.cpp 0x00000000   Number         0  nrk_error.o ABSOLUTE
    mRK\NanoRk\src\kernel\source\nrk_events.cpp 0x00000000   Number         0  nrk_events.o ABSOLUTE
    mRK\NanoRk\src\kernel\source\nrk_idle_task.cpp 0x00000000   Number         0  nrk_idle_task.o ABSOLUTE
    mRK\NanoRk\src\kernel\source\nrk_reserve.cpp 0x00000000   Number         0  nrk_reserve.o ABSOLUTE
    mRK\NanoRk\src\kernel\source\nrk_scheduler.cpp 0x00000000   Number         0  nrk_scheduler.o ABSOLUTE
    mRK\NanoRk\src\kernel\source\nrk_stack_check.cpp 0x00000000   Number         0  nrk_stack_check.o ABSOLUTE
    mRK\NanoRk\src\kernel\source\nrk_stats.cpp 0x00000000   Number         0  nrk_stats.o ABSOLUTE
    mRK\NanoRk\src\kernel\source\nrk_sw_wdt.cpp 0x00000000   Number         0  nrk_sw_wdt.o ABSOLUTE
    mRK\NanoRk\src\kernel\source\nrk_task.cpp 0x00000000   Number         0  nrk_task.o ABSOLUTE
    mRK\NanoRk\src\kernel\source\nrk_time.cpp 0x00000000   Number         0  nrk_time.o ABSOLUTE
    mRK\NanoRk\src\main.cpp                  0x00000000   Number         0  main.o ABSOLUTE
    mRK\NanoRk\src\networking\bmac.cpp       0x00000000   Number         0  bmac.o ABSOLUTE
    mRK\NanoRk\src\platform\hal_wait.cpp     0x00000000   Number         0  hal_wait.o ABSOLUTE
    mRK\NanoRk\src\platform\nrk_eeprom.cpp   0x00000000   Number         0  nrk_eeprom.o ABSOLUTE
    mRK\NanoRk\src\platform\ulib.cpp         0x00000000   Number         0  ulib.o ABSOLUTE
    mRK\NanoRk\src\radio\MRF24J40.cpp        0x00000000   Number         0  mrf24j40.o ABSOLUTE
    mRK\NanoRk\src\radio\basic_rf.cpp        0x00000000   Number         0  basic_rf.o ABSOLUTE
    mRK\my_asm.s                             0x00000000   Number         0  my_asm.o ABSOLUTE
    src/Base.cpp                             0x00000000   Number         0  Base.cpp.lpc1768.arm.o ABSOLUTE
    src/DigitalIn.cpp                        0x00000000   Number         0  DigitalIn.cpp.lpc1768.arm.o ABSOLUTE
    src/LPC1768/core_cm3.c                   0x00000000   Number         0  core_cm3.o ABSOLUTE
    src/LPC1768/core_cm3.c                   0x00000000   Number         0  core_cm3.o ABSOLUTE
    src/LPC1768/startup_LPC17xx.s            0x00000000   Number         0  startup_LPC17xx.o ABSOLUTE
    src/LPC1768/system_LPC17xx.c             0x00000000   Number         0  system_LPC17xx.o ABSOLUTE
    src/cmsis_nvic.c                         0x00000000   Number         0  cmsis_nvic.o ABSOLUTE
    src/exit.c                               0x00000000   Number         0  exit.c.lpc1768.arm.o ABSOLUTE
    src/gpio_api.c                           0x00000000   Number         0  gpio_api.c.lpc1768.arm.o ABSOLUTE
    src/pinmap.c                             0x00000000   Number         0  pinmap.c.lpc1768.arm.o ABSOLUTE
    src/rtc_api.c                            0x00000000   Number         0  rtc_api.c.lpc1768.arm.o ABSOLUTE
    src/rtc_time.c                           0x00000000   Number         0  rtc_time.c.lpc1768.arm.o ABSOLUTE
    src/semihost_api.c                       0x00000000   Number         0  semihost_api.c.lpc1768.arm.o ABSOLUTE
    src/serial_api.c                         0x00000000   Number         0  serial_api.c.lpc1768.arm.o ABSOLUTE
    src/stackheap.c                          0x00000000   Number         0  stackheap.o ABSOLUTE
    src/stdio.cpp                            0x00000000   Number         0  stdio.cpp.lpc1768.arm.o ABSOLUTE
    src/timer_api.c                          0x00000000   Number         0  timer_api.c.lpc1768.arm.o ABSOLUTE
    src/us_ticker_api.c                      0x00000000   Number         0  us_ticker_api.c.lpc1768.arm.o ABSOLUTE
    src/utils_api.c                          0x00000000   Number         0  utils_api.c.lpc1768.arm.o ABSOLUTE
    src/wait_api.c                           0x00000000   Number         0  wait_api.c.lpc1768.arm.o ABSOLUTE
    !!!main                                  0x000000c4   Section        8  __main.o(!!!main)
    !!!scatter                               0x000000cc   Section       52  __scatter.o(!!!scatter)
    !!dczerorl                               0x00000100   Section       58  __dczerorl.o(!!dczerorl)
    !!handler_zi                             0x0000013c   Section       28  __scatter_zi.o(!!handler_zi)
    .ARM.Collect$$_printf_percent$$00000000  0x00000158   Section        0  _printf_percent.o(.ARM.Collect$$_printf_percent$$00000000)
    .ARM.Collect$$_printf_percent$$00000001  0x00000158   Section        6  _printf_n.o(.ARM.Collect$$_printf_percent$$00000001)
    .ARM.Collect$$_printf_percent$$00000002  0x0000015e   Section        6  _printf_p.o(.ARM.Collect$$_printf_percent$$00000002)
    .ARM.Collect$$_printf_percent$$00000003  0x00000164   Section        6  _printf_f.o(.ARM.Collect$$_printf_percent$$00000003)
    .ARM.Collect$$_printf_percent$$00000004  0x0000016a   Section        6  _printf_e.o(.ARM.Collect$$_printf_percent$$00000004)
    .ARM.Collect$$_printf_percent$$00000005  0x00000170   Section        6  _printf_g.o(.ARM.Collect$$_printf_percent$$00000005)
    .ARM.Collect$$_printf_percent$$00000006  0x00000176   Section        6  _printf_a.o(.ARM.Collect$$_printf_percent$$00000006)
    .ARM.Collect$$_printf_percent$$00000007  0x0000017c   Section       10  _printf_ll.o(.ARM.Collect$$_printf_percent$$00000007)
    .ARM.Collect$$_printf_percent$$00000008  0x00000186   Section        6  _printf_i.o(.ARM.Collect$$_printf_percent$$00000008)
    .ARM.Collect$$_printf_percent$$00000009  0x0000018c   Section        6  _printf_d.o(.ARM.Collect$$_printf_percent$$00000009)
    .ARM.Collect$$_printf_percent$$0000000A  0x00000192   Section        6  _printf_u.o(.ARM.Collect$$_printf_percent$$0000000A)
    .ARM.Collect$$_printf_percent$$0000000B  0x00000198   Section        6  _printf_o.o(.ARM.Collect$$_printf_percent$$0000000B)
    .ARM.Collect$$_printf_percent$$0000000C  0x0000019e   Section        6  _printf_x.o(.ARM.Collect$$_printf_percent$$0000000C)
    .ARM.Collect$$_printf_percent$$0000000D  0x000001a4   Section        6  _printf_lli.o(.ARM.Collect$$_printf_percent$$0000000D)
    .ARM.Collect$$_printf_percent$$0000000E  0x000001aa   Section        6  _printf_lld.o(.ARM.Collect$$_printf_percent$$0000000E)
    .ARM.Collect$$_printf_percent$$0000000F  0x000001b0   Section        6  _printf_llu.o(.ARM.Collect$$_printf_percent$$0000000F)
    .ARM.Collect$$_printf_percent$$00000010  0x000001b6   Section        6  _printf_llo.o(.ARM.Collect$$_printf_percent$$00000010)
    .ARM.Collect$$_printf_percent$$00000011  0x000001bc   Section        6  _printf_llx.o(.ARM.Collect$$_printf_percent$$00000011)
    .ARM.Collect$$_printf_percent$$00000012  0x000001c2   Section       10  _printf_l.o(.ARM.Collect$$_printf_percent$$00000012)
    .ARM.Collect$$_printf_percent$$00000013  0x000001cc   Section        6  _printf_c.o(.ARM.Collect$$_printf_percent$$00000013)
    .ARM.Collect$$_printf_percent$$00000014  0x000001d2   Section        6  _printf_s.o(.ARM.Collect$$_printf_percent$$00000014)
    .ARM.Collect$$_printf_percent$$00000015  0x000001d8   Section        6  _printf_lc.o(.ARM.Collect$$_printf_percent$$00000015)
    .ARM.Collect$$_printf_percent$$00000016  0x000001de   Section        6  _printf_ls.o(.ARM.Collect$$_printf_percent$$00000016)
    .ARM.Collect$$_printf_percent$$00000017  0x000001e4   Section        4  _printf_percent_end.o(.ARM.Collect$$_printf_percent$$00000017)
    .ARM.Collect$$libinit$$00000000          0x000001e8   Section        2  libinit.o(.ARM.Collect$$libinit$$00000000)
    .ARM.Collect$$libinit$$00000002          0x000001ea   Section        0  libinit2.o(.ARM.Collect$$libinit$$00000002)
    .ARM.Collect$$libinit$$00000004          0x000001ea   Section        0  libinit2.o(.ARM.Collect$$libinit$$00000004)
    .ARM.Collect$$libinit$$00000005          0x000001ea   Section        8  libinit2.o(.ARM.Collect$$libinit$$00000005)
    .ARM.Collect$$libinit$$0000000A          0x000001f2   Section        0  libinit2.o(.ARM.Collect$$libinit$$0000000A)
    .ARM.Collect$$libinit$$0000000C          0x000001f2   Section        0  libinit2.o(.ARM.Collect$$libinit$$0000000C)
    .ARM.Collect$$libinit$$0000000D          0x000001f2   Section        4  libinit2.o(.ARM.Collect$$libinit$$0000000D)
    .ARM.Collect$$libinit$$0000000E          0x000001f6   Section        0  libinit2.o(.ARM.Collect$$libinit$$0000000E)
    .ARM.Collect$$libinit$$0000000F          0x000001f6   Section        6  libinit2.o(.ARM.Collect$$libinit$$0000000F)
    .ARM.Collect$$libinit$$00000011          0x000001fc   Section        0  libinit2.o(.ARM.Collect$$libinit$$00000011)
    .ARM.Collect$$libinit$$00000012          0x000001fc   Section       12  libinit2.o(.ARM.Collect$$libinit$$00000012)
    .ARM.Collect$$libinit$$00000013          0x00000208   Section        0  libinit2.o(.ARM.Collect$$libinit$$00000013)
    .ARM.Collect$$libinit$$00000015          0x00000208   Section        0  libinit2.o(.ARM.Collect$$libinit$$00000015)
    .ARM.Collect$$libinit$$00000016          0x00000208   Section       10  libinit2.o(.ARM.Collect$$libinit$$00000016)
    .ARM.Collect$$libinit$$00000017          0x00000212   Section        0  libinit2.o(.ARM.Collect$$libinit$$00000017)
    .ARM.Collect$$libinit$$00000019          0x00000212   Section        0  libinit2.o(.ARM.Collect$$libinit$$00000019)
    .ARM.Collect$$libinit$$0000001B          0x00000212   Section        0  libinit2.o(.ARM.Collect$$libinit$$0000001B)
    .ARM.Collect$$libinit$$0000001D          0x00000212   Section        0  libinit2.o(.ARM.Collect$$libinit$$0000001D)
    .ARM.Collect$$libinit$$0000001F          0x00000212   Section        0  libinit2.o(.ARM.Collect$$libinit$$0000001F)
    .ARM.Collect$$libinit$$00000021          0x00000212   Section        0  libinit2.o(.ARM.Collect$$libinit$$00000021)
    .ARM.Collect$$libinit$$00000023          0x00000212   Section        0  libinit2.o(.ARM.Collect$$libinit$$00000023)
    .ARM.Collect$$libinit$$00000024          0x00000212   Section        4  libinit2.o(.ARM.Collect$$libinit$$00000024)
    .ARM.Collect$$libinit$$00000025          0x00000216   Section        0  libinit2.o(.ARM.Collect$$libinit$$00000025)
    .ARM.Collect$$libinit$$0000002C          0x00000216   Section        0  libinit2.o(.ARM.Collect$$libinit$$0000002C)
    .ARM.Collect$$libinit$$0000002E          0x00000216   Section        0  libinit2.o(.ARM.Collect$$libinit$$0000002E)
    .ARM.Collect$$libinit$$00000030          0x00000216   Section        0  libinit2.o(.ARM.Collect$$libinit$$00000030)
    .ARM.Collect$$libinit$$00000031          0x00000216   Section        4  libinit2.o(.ARM.Collect$$libinit$$00000031)
    .ARM.Collect$$libinit$$00000032          0x0000021a   Section        0  libinit2.o(.ARM.Collect$$libinit$$00000032)
    .ARM.Collect$$libinit$$00000033          0x0000021a   Section        2  libinit2.o(.ARM.Collect$$libinit$$00000033)
    .ARM.Collect$$libshutdown$$00000002      0x0000021c   Section        0  libshutdown2.o(.ARM.Collect$$libshutdown$$00000002)
    .ARM.Collect$$libshutdown$$00000004      0x0000021c   Section        0  libshutdown2.o(.ARM.Collect$$libshutdown$$00000004)
    .ARM.Collect$$rtentry$$00000000          0x0000021c   Section        0  __rtentry.o(.ARM.Collect$$rtentry$$00000000)
    .ARM.Collect$$rtentry$$00000002          0x0000021c   Section        0  __rtentry2.o(.ARM.Collect$$rtentry$$00000002)
    .ARM.Collect$$rtentry$$00000004          0x0000021c   Section        6  __rtentry4.o(.ARM.Collect$$rtentry$$00000004)
    .ARM.Collect$$rtentry$$00000009          0x00000222   Section        0  __rtentry2.o(.ARM.Collect$$rtentry$$00000009)
    .ARM.Collect$$rtentry$$0000000A          0x00000222   Section        4  __rtentry2.o(.ARM.Collect$$rtentry$$0000000A)
    .ARM.Collect$$rtentry$$0000000C          0x00000226   Section        0  __rtentry2.o(.ARM.Collect$$rtentry$$0000000C)
    .ARM.Collect$$rtentry$$0000000D          0x00000226   Section        8  __rtentry2.o(.ARM.Collect$$rtentry$$0000000D)
    .emb_text                                0x00000230   Section       52  rand.o(.emb_text)
    .emb_text                                0x00000264   Section        0  maybetermalloc1.o(.emb_text)
    .text                                    0x00000264   Section      120  my_asm.o(.text)
    .text                                    0x000002dc   Section        0  fprintf.o(.text)
    .text                                    0x000002f0   Section        8  rt_ddtor_pointer_addr.o(.text)
    .text                                    0x000002f8   Section        0  arm_bad_typeid_noexceptions.o(.text)
    .ARM.__at_0x02FC                         0x000002fc   Section        4  startup_LPC17xx.o(.ARM.__at_0x02FC)
    .text                                    0x00000300   Section       36  startup_LPC17xx.o(.text)
    .text                                    0x00000324   Section      238  lludivv7m.o(.text)
    .text                                    0x00000414   Section        0  sprintf.o(.text)
    .text                                    0x00000440   Section        0  __2printf.o(.text)
    .text                                    0x00000458   Section        0  __2sprintf.o(.text)
    .text                                    0x00000484   Section        0  _printf_str.o(.text)
    .text                                    0x000004d8   Section        0  _printf_dec.o(.text)
    .text                                    0x00000550   Section        0  _printf_hex_int_ll_ptr.o(.text)
    _printf_hex_common                       0x00000551   Thumb Code     0  _printf_hex_int_ll_ptr.o(.text)
    .text                                    0x000005e4   Section        0  __printf_flags_ss_wp.o(.text)
    .text                                    0x0000076c   Section        0  sscanf.o(.text)
    .text                                    0x000007a8   Section        0  rand.o(.text)
    .text                                    0x000007e4   Section        0  aeabi_atexit.o(.text)
    .text                                    0x00000814   Section        0  assert.o(.text)
    .text                                    0x00000894   Section        0  strlen.o(.text)
    .text                                    0x000008d2   Section        0  strncmp.o(.text)
    .text                                    0x00000968   Section      128  strcmpv7m.o(.text)
    .text                                    0x000009e8   Section        0  init_aeabi.o(.text)
    .text                                    0x00000a0c   Section       16  rt_ctype_table.o(.text)
    .text                                    0x00000a1c   Section        8  rt_errno_addr.o(.text)
    .text                                    0x00000a24   Section        0  h1_alloc.o(.text)
    .text                                    0x00000a82   Section        0  h1_free.o(.text)
    .text                                    0x00000ad0   Section        0  _rserrno.o(.text)
    .text                                    0x00000ae6   Section        0  _printf_pad.o(.text)
    .text                                    0x00000b34   Section        0  _printf_truncate.o(.text)
    .text                                    0x00000b58   Section        0  _printf_intcommon.o(.text)
    .text                                    0x00000c0a   Section        0  _printf_charcount.o(.text)
    .text                                    0x00000c34   Section        0  _printf_char_common.o(.text)
    _printf_input_char                       0x00000c35   Thumb Code    10  _printf_char_common.o(.text)
    .text                                    0x00000c64   Section        0  _sputc.o(.text)
    .text                                    0x00000c6e   Section        0  _printf_char.o(.text)
    .text                                    0x00000c9c   Section        0  _printf_char_file.o(.text)
    .text                                    0x00000cc0   Section        0  _printf_wctomb.o(.text)
    .text                                    0x00000d7c   Section        0  _printf_longlong_dec.o(.text)
    .text                                    0x00000df8   Section        0  _printf_oct_int_ll.o(.text)
    _printf_longlong_oct_internal            0x00000df9   Thumb Code     0  _printf_oct_int_ll.o(.text)
    .text                                    0x00000e68   Section        0  _scanf_longlong.o(.text)
    .text                                    0x00000fbe   Section        0  _scanf_int.o(.text)
    .text                                    0x0000110a   Section        0  _scanf_str.o(.text)
    .text                                    0x000011ec   Section        0  scanf_char.o(.text)
    _scanf_char_input                        0x000011ed   Thumb Code    12  scanf_char.o(.text)
    .text                                    0x00001218   Section        0  _sgetc.o(.text)
    .text                                    0x00001258   Section        0  _scanf_mbtowc.o(.text)
    .text                                    0x0000136c   Section        0  _scanf_wctomb.o(.text)
    .text                                    0x00001454   Section        0  _scanf_wstr.o(.text)
    .text                                    0x00001524   Section        0  initio.o(.text)
    .text                                    0x0000165c   Section        0  abort.o(.text)
    .text                                    0x00001672   Section        0  cxa_finalize.o(.text)
    .text                                    0x000016b4   Section        0  sys_wrch.o(.text)
    .text                                    0x000016c4   Section        0  sys_exit.o(.text)
    .text                                    0x000016d0   Section        8  rt_heap_descriptor.o(.text)
    .text                                    0x000016d8   Section        8  rt_locale.o(.text)
    .text                                    0x000016e0   Section        0  hguard.o(.text)
    .text                                    0x000016e4   Section        0  init_alloc.o(.text)
    .text                                    0x0000176e   Section        0  h1_init.o(.text)
    .text                                    0x0000177c   Section      138  lludiv10.o(.text)
    .text                                    0x00001806   Section        0  isspace.o(.text)
    .text                                    0x00001818   Section        0  _printf_fp_dec.o(.text)
    _fp_digits                               0x0000181b   Thumb Code   432  _printf_fp_dec.o(.text)
    .text                                    0x00001c38   Section        0  _printf_fp_hex.o(.text)
    .text                                    0x00001f34   Section        0  _printf_wchar.o(.text)
    .text                                    0x00001f60   Section        0  _chval.o(.text)
    .text                                    0x00001f7c   Section        0  _scanf.o(.text)
    .text                                    0x000022f0   Section        0  scanf_fp.o(.text)
    _fp_value                                0x000022f1   Thumb Code   588  scanf_fp.o(.text)
    .text                                    0x000027e8   Section        0  _scanf_wcharmap.o(.text)
    .text                                    0x00002806   Section        0  ferror.o(.text)
    .text                                    0x0000280e   Section        0  flsbuf.o(.text)
    .text                                    0x000029e4   Section        0  setvbuf.o(.text)
    .text                                    0x00002a2c   Section        0  fopen.o(.text)
    _freopen_locked                          0x00002a2d   Thumb Code     0  fopen.o(.text)
    .text                                    0x00002b18   Section        0  fclose.o(.text)
    .text                                    0x00002b64   Section        0  _mbrtowc.o(.text)
    .text                                    0x00002ba0   Section        0  _wcrtomb.o(.text)
    .text                                    0x00002be0   Section        0  defsig_exit.o(.text)
    .text                                    0x00002bea   Section        0  defsig_abrt_outer.o(.text)
    .text                                    0x00002bf8   Section        0  defsig_rtred_outer.o(.text)
    .text                                    0x00002c06   Section       78  rt_memclr_w.o(.text)
    .text                                    0x00002c54   Section        0  arm_exceptions_terminate.o(.text)
    .text                                    0x00002c70   Section        0  arm_exceptions_globs.o(.text)
    [local to arm_exceptions_c]::__default_terminate_handler() 0x00002c71   Thumb Code     6  arm_exceptions_globs.o(.text)
    .text                                    0x00002cc0   Section        2  use_no_semi.o(.text)
    .text                                    0x00002cc2   Section        0  indicate_semi.o(.text)
    .text                                    0x00002cc4   Section        8  rt_eh_globals_addr.o(.text)
    .text                                    0x00002ccc   Section        0  h1_extend.o(.text)
    .text                                    0x00002d00   Section        0  _printf_fp_infnan.o(.text)
    .text                                    0x00002d80   Section        0  bigflt0.o(.text)
    .text                                    0x00002e64   Section        0  fseek.o(.text)
    .text                                    0x00002f5c   Section        0  stdio.o(.text)
    .text                                    0x0000304c   Section        0  defsig_general.o(.text)
    .text                                    0x00003080   Section        0  defsig_abrt_inner.o(.text)
    .text                                    0x000030b0   Section        0  defsig_rtred_inner.o(.text)
    .text                                    0x000030e4   Section        0  defsig_rtmem_outer.o(.text)
    .text                                    0x000030f4   Section        0  assert_stdio.o(.text)
    .text                                    0x0000310c   Section        0  heapauxa.o(.text)
    .text                                    0x0000315c   Section        0  arm_exceptions_mem.o(.text)
    .text                                    0x00003198   Section        0  scanf_hexfp.o(.text)
    .text                                    0x000034b8   Section        0  scanf_infnan.o(.text)
    .text                                    0x000035ec   Section        0  fflush.o(.text)
    .text                                    0x00003650   Section        0  fputs.o(.text)
    .text                                    0x00003672   Section        0  ftell.o(.text)
    .text                                    0x000036b4   Section        0  defsig_rtmem_inner.o(.text)
    .text                                    0x00003704   Section       38  llshl.o(.text)
    CL$$btod_d2e                             0x0000372a   Section       62  btod.o(CL$$btod_d2e)
    CL$$btod_d2e_denorm_low                  0x00003768   Section       70  btod.o(CL$$btod_d2e_denorm_low)
    CL$$btod_d2e_norm_op1                    0x000037ae   Section       96  btod.o(CL$$btod_d2e_norm_op1)
    CL$$btod_div_common                      0x0000380e   Section      824  btod.o(CL$$btod_div_common)
    CL$$btod_e2d                             0x00003b48   Section      132  btod.o(CL$$btod_e2d)
    CL$$btod_e2e                             0x00003bcc   Section      220  btod.o(CL$$btod_e2e)
    CL$$btod_ediv                            0x00003ca8   Section       42  btod.o(CL$$btod_ediv)
    CL$$btod_edivd                           0x00003cd2   Section       42  btod.o(CL$$btod_edivd)
    CL$$btod_emul                            0x00003cfc   Section       42  btod.o(CL$$btod_emul)
    CL$$btod_emuld                           0x00003d26   Section       42  btod.o(CL$$btod_emuld)
    CL$$btod_mult_common                     0x00003d50   Section      580  btod.o(CL$$btod_mult_common)
    i.EINT3_IRQHandler                       0x00003f94   Section        0  basic_rf.o(i.EINT3_IRQHandler)
    i.SystemInit                             0x00003ffc   Section        0  system_LPC17xx.o(i.SystemInit)
    i.TIMER0_IRQHandler                      0x00004074   Section        0  nrk_timer.o(i.TIMER0_IRQHandler)
    i.TIMER1_IRQHandler                      0x00004090   Section        0  nrk_timer.o(i.TIMER1_IRQHandler)
    i._Z10mrf_cs_seth                        0x000040a8   Section        0  mrf24j40.o(i._Z10mrf_cs_seth)
    i._Z11GPIO_SetDirhjh                     0x000040c4   Section        0  ulib.o(i._Z11GPIO_SetDirhjh)
    i._Z11GPIO_Togglehj                      0x000040e4   Section        0  ulib.o(i._Z11GPIO_Togglehj)
    i._Z11bmac_tx_pktPch                     0x000040fc   Section        0  bmac.o(i._Z11bmac_tx_pktPch)
    i._Z11nrk_led_clri                       0x00004140   Section        0  ulib.o(i._Z11nrk_led_clri)
    i._Z11nrk_led_seti                       0x0000416c   Section        0  ulib.o(i._Z11nrk_led_seti)
    i._Z11set_PinFunchhh                     0x00004198   Section        0  ulib.o(i._Z11set_PinFunchhh)
    i._Z12all_LEDs_clrv                      0x000041c0   Section        0  main.o(i._Z12all_LEDs_clrv)
    i._Z12all_LEDs_setv                      0x000041de   Section        0  main.o(i._Z12all_LEDs_setv)
    i._Z12bmac_nw_taskv                      0x000041fc   Section        0  bmac.o(i._Z12bmac_nw_taskv)
    i._Z12bmac_startedv                      0x00004268   Section        0  bmac.o(i._Z12bmac_startedv)
    i._Z12mrf_set_addrt                      0x00004274   Section        0  mrf24j40.o(i._Z12mrf_set_addrt)
    i._Z12mrf_spi_inithhi                    0x0000429c   Section        0  mrf24j40.o(i._Z12mrf_spi_inithhi)
    i._Z12nrk_TCB_initP9task_typePjS1_tPvt   0x00004350   Section        0  nrk.o(i._Z12nrk_TCB_initP9task_typePjS1_tPvt)
    i._Z12nrk_gpio_clrj                      0x000044d4   Section        0  ulib.o(i._Z12nrk_gpio_clrj)
    i._Z12nrk_gpio_setj                      0x00004516   Section        0  ulib.o(i._Z12nrk_gpio_setj)
    i._Z12rf_data_modev                      0x00004558   Section        0  basic_rf.o(i._Z12rf_data_modev)
    i._Z12rf_rx_packetv                      0x00004564   Section        0  basic_rf.o(i._Z12rf_rx_packetv)
    i._Z12rf_test_modev                      0x0000457c   Section        0  basic_rf.o(i._Z12rf_test_modev)
    i._Z12rf_tx_packetP10RF_TX_INFO          0x00004588   Section        0  basic_rf.o(i._Z12rf_tx_packetP10RF_TX_INFO)
    i._Z12setupSPIPinsv                      0x00004710   Section        0  ulib.o(i._Z12setupSPIPinsv)
    i._Z13GPIO_SetValuehj                    0x00004758   Section        0  ulib.o(i._Z13GPIO_SetValuehj)
    i._Z13mrf_gpio_initv                     0x0000476c   Section        0  mrf24j40.o(i._Z13mrf_gpio_initv)
    i._Z13mrf_read_longt                     0x000047cc   Section        0  mrf24j40.o(i._Z13mrf_read_longt)
    i._Z13mrf_reset_seth                     0x00004820   Section        0  mrf24j40.o(i._Z13mrf_reset_seth)
    i._Z13mrf_set_panidt                     0x0000483c   Section        0  mrf24j40.o(i._Z13mrf_set_panidt)
    i._Z13mrf_spi_writet                     0x0000486c   Section        0  mrf24j40.o(i._Z13mrf_spi_writet)
    i._Z13nrk_error_addh                     0x00004888   Section        0  nrk_error.o(i._Z13nrk_error_addh)
    i._Z13nrk_idle_taskv                     0x000048a0   Section        0  nrk_idle_task.o(i._Z13nrk_idle_taskv)
    i._Z13rf_carrier_onv                     0x000048c0   Section        0  basic_rf.o(i._Z13rf_carrier_onv)
    i._Z14NVIC_EnableIRQ4IRQn                0x000048e2   Section        0  nrk_timer.o(i._Z14NVIC_EnableIRQ4IRQn)
    NVIC_EnableIRQ(IRQn)                     0x000048e3   Thumb Code    22  nrk_timer.o(i._Z14NVIC_EnableIRQ4IRQn)
    i._Z14_nrk_errno_seth                    0x000048f8   Section        0  nrk_error.o(i._Z14_nrk_errno_seth)
    i._Z14_nrk_schedulerv                    0x00004904   Section        0  nrk_scheduler.o(i._Z14_nrk_schedulerv)
    i._Z14mrfIsrCallbackv                    0x00004b98   Section        0  main.o(i._Z14mrfIsrCallbackv)
    i._Z14mrf_read_shorth                    0x00004ba8   Section        0  mrf24j40.o(i._Z14mrf_read_shorth)
    i._Z14mrf_write_longth                   0x00004bee   Section        0  mrf24j40.o(i._Z14mrf_write_longth)
    i._Z14nrk_event_waitj                    0x00004c48   Section        0  nrk_events.o(i._Z14nrk_event_waitj)
    i._Z14nrk_int_enablev                    0x00004c84   Section        0  nrk.o(i._Z14nrk_int_enablev)
    i._Z14nrk_led_togglei                    0x00004c88   Section        0  ulib.o(i._Z14nrk_led_togglei)
    i._Z14rf_carrier_offv                    0x00004cb4   Section        0  basic_rf.o(i._Z14rf_carrier_offv)
    i._Z14rf_set_rx_modeh                    0x00004cd6   Section        0  basic_rf.o(i._Z14rf_set_rx_modeh)
    i._Z14setup_uartPinsv                    0x00004cee   Section        0  ulib.o(i._Z14setup_uartPinsv)
    i._Z15GPIO_ClearValuehj                  0x00004d34   Section        0  ulib.o(i._Z15GPIO_ClearValuehj)
    i._Z15GPIO_GetPointerh                   0x00004d48   Section        0  ulib.o(i._Z15GPIO_GetPointerh)
    GPIO_GetPointer(unsigned char)           0x00004d49   Thumb Code    46  ulib.o(i._Z15GPIO_GetPointerh)
    i._Z15bmac_rx_pkt_getPhS_                0x00004d7c   Section        0  bmac.o(i._Z15bmac_rx_pkt_getPhS_)
    i._Z15mrf_write_shorthh                  0x00004da4   Section        0  mrf24j40.o(i._Z15mrf_write_shorthh)
    i._Z15nrk_gpio_togglej                   0x00004dec   Section        0  ulib.o(i._Z15nrk_gpio_togglej)
    i._Z15nrk_int_disablev                   0x00004e2e   Section        0  nrk.o(i._Z15nrk_int_disablev)
    i._Z15nrk_setup_portsv                   0x00004e32   Section        0  ulib.o(i._Z15nrk_setup_portsv)
    i._Z15nrk_stack_checkv                   0x00004e36   Section        0  nrk_stack_check.o(i._Z15nrk_stack_checkv)
    i._Z15rf_rx_check_ccav                   0x00004e38   Section        0  basic_rf.o(i._Z15rf_rx_check_ccav)
    i._Z16PINSEL_ConfigPinP15PINSEL_CFG_Type 0x00004e54   Section        0  ulib.o(i._Z16PINSEL_ConfigPinP15PINSEL_CFG_Type)
    i._Z16_nrk_setup_timerv                  0x00004e7c   Section        0  nrk_timer.o(i._Z16_nrk_setup_timerv)
    i._Z16bmac_task_configv                  0x00004f14   Section        0  bmac.o(i._Z16bmac_task_configv)
    i._Z16mrf_gpioint_initv                  0x00004f5c   Section        0  mrf24j40.o(i._Z16mrf_gpioint_initv)
    i._Z16nrk_event_signala                  0x00004f94   Section        0  nrk_events.o(i._Z16nrk_event_signala)
    i._Z16nrk_spin_wait_usj                  0x0000501c   Section        0  nrk_timer.o(i._Z16nrk_spin_wait_usj)
    i._Z16nrk_target_startv                  0x00005020   Section        0  nrk_cpu.o(i._Z16nrk_target_startv)
    i._Z16nrk_task_set_stkP9task_typePjt     0x0000502a   Section        0  nrk_cpu.o(i._Z16nrk_task_set_stkP9task_typePjt)
    i._Z16rf_polling_rx_onv                  0x00005048   Section        0  basic_rf.o(i._Z16rf_polling_rx_onv)
    i._Z16set_ResistorModehhh                0x00005070   Section        0  ulib.o(i._Z16set_ResistorModehhh)
    i._Z17_nrk_os_timer_getv                 0x00005098   Section        0  nrk_timer.o(i._Z17_nrk_os_timer_getv)
    i._Z17nrk_activate_taskP9task_type       0x000050a4   Section        0  nrk_task.o(i._Z17nrk_activate_taskP9task_type)
    i._Z17nrk_add_to_readyQa                 0x00005118   Section        0  nrk_task.o(i._Z17nrk_add_to_readyQa)
    i._Z17nrk_signal_createv                 0x000051d0   Section        0  nrk_events.o(i._Z17nrk_signal_createv)
    i._Z17nrk_task_stk_initPFvvEPjS1_        0x00005200   Section        0  nrk_cpu.o(i._Z17nrk_task_stk_initPFvvEPjS1_)
    i._Z17nrk_wait_until_nwv                 0x00005280   Section        0  nrk_task.o(i._Z17nrk_wait_until_nwv)
    i._Z17rf_set_cca_thresha                 0x000052c4   Section        0  basic_rf.o(i._Z17rf_set_cca_thresha)
    i._Z17set_OpenDrainModehhh               0x000052f0   Section        0  ulib.o(i._Z17set_OpenDrainModehhh)
    i._Z18_nrk_time_to_ticksP10nrk_time_t    0x00005314   Section        0  nrk_time.o(i._Z18_nrk_time_to_ticksP10nrk_time_t)
    i._Z18nrk_create_tasksetv                0x00005354   Section        0  main.o(i._Z18nrk_create_tasksetv)
    i._Z18rf_auto_ack_enablev                0x000053d4   Section        0  basic_rf.o(i._Z18rf_auto_ack_enablev)
    i._Z18rf_parse_rx_packetv                0x000053f4   Section        0  basic_rf.o(i._Z18rf_parse_rx_packetv)
    i._Z19_bmac_channel_checkv               0x000054a4   Section        0  bmac.o(i._Z19_bmac_channel_checkv)
    i._Z19_nrk_os_timer_resetv               0x000054c4   Section        0  nrk_timer.o(i._Z19_nrk_os_timer_resetv)
    i._Z19_nrk_os_timer_startv               0x000054d4   Section        0  nrk_timer.o(i._Z19_nrk_os_timer_startv)
    i._Z19bmac_rx_pkt_releasev               0x000054e4   Section        0  bmac.o(i._Z19bmac_rx_pkt_releasev)
    i._Z19bmac_set_cca_thresha               0x000054f0   Section        0  bmac.o(i._Z19bmac_set_cca_thresha)
    i._Z19nrk_rem_from_readyQa               0x000054fc   Section        0  nrk_task.o(i._Z19nrk_rem_from_readyQa)
    i._Z19nrk_signal_registera               0x00005550   Section        0  nrk_events.o(i._Z19nrk_signal_registera)
    i._Z19rf_auto_ack_disablev               0x00005578   Section        0  basic_rf.o(i._Z19rf_auto_ack_disablev)
    i._Z20_nrk_get_next_wakeupv              0x00005598   Section        0  nrk_timer.o(i._Z20_nrk_get_next_wakeupv)
    i._Z20_nrk_set_next_wakeuph              0x000055a2   Section        0  nrk_timer.o(i._Z20_nrk_set_next_wakeuph)
    i._Z20nrk_kernel_error_addhh             0x000055ac   Section        0  nrk_error.o(i._Z20nrk_kernel_error_addhh)
    i._Z20nrk_wait_until_tickst              0x000055b8   Section        0  nrk_task.o(i._Z20nrk_wait_until_tickst)
    i._Z21bmac_auto_ack_disablev             0x000055fc   Section        0  bmac.o(i._Z21bmac_auto_ack_disablev)
    i._Z22bmac_rx_pkt_set_bufferPch          0x00005608   Section        0  bmac.o(i._Z22bmac_rx_pkt_set_bufferPch)
    i._Z22bmac_set_rx_check_rate10nrk_time_t 0x00005628   Section        0  bmac.o(i._Z22bmac_set_rx_check_rate10nrk_time_t)
    i._Z22bmac_wait_until_rx_pktv            0x00005648   Section        0  bmac.o(i._Z22bmac_wait_until_rx_pktv)
    i._Z22nrk_stack_pointer_initv            0x0000567c   Section        0  nrk_cpu.o(i._Z22nrk_stack_pointer_initv)
    i._Z22rf_addr_decode_disablev            0x000056f4   Section        0  basic_rf.o(i._Z22rf_addr_decode_disablev)
    i._Z23_nrk_wait_for_schedulerv           0x0000570c   Section        0  nrk_task.o(i._Z23_nrk_wait_for_schedulerv)
    i._Z23bmac_get_tx_done_signalv           0x00005720   Section        0  bmac.o(i._Z23bmac_get_tx_done_signalv)
    i._Z25_nrk_high_speed_timer_getv         0x00005738   Section        0  nrk_timer.o(i._Z25_nrk_high_speed_timer_getv)
    i._Z25bmac_addr_decode_dest_mact         0x0000574c   Section        0  bmac.o(i._Z25bmac_addr_decode_dest_mact)
    i._Z25nrk_high_speed_timer_waittt        0x00005758   Section        0  nrk_timer.o(i._Z25nrk_high_speed_timer_waittt)
    i._Z25nrk_stack_pointer_restorev         0x0000578c   Section        0  nrk_cpu.o(i._Z25nrk_stack_pointer_restorev)
    i._Z26nrk_get_high_ready_task_IDv        0x000057fc   Section        0  nrk_task.o(i._Z26nrk_get_high_ready_task_IDv)
    i._Z26nrk_wait_until_next_periodv        0x00005808   Section        0  nrk_task.o(i._Z26nrk_wait_until_next_periodv)
    i._Z27_nrk_high_speed_timer_resetv       0x0000584c   Section        0  nrk_timer.o(i._Z27_nrk_high_speed_timer_resetv)
    i._Z27nrk_task_set_entry_functionP9task_typePFvvE 0x00005864   Section        0  nrk_cpu.o(i._Z27nrk_task_set_entry_functionP9task_typePFvvE)
    i._Z29nrk_wait_until_next_n_periodst     0x00005868   Section        0  nrk_task.o(i._Z29nrk_wait_until_next_n_periodst)
    i._Z6_b_powh                             0x000058b4   Section        0  bmac.o(i._Z6_b_powh)
    i._Z7initLEDv                            0x000058d8   Section        0  ulib.o(i._Z7initLEDv)
    i._Z7rf_initP10RF_RX_INFOhtt             0x00005978   Section        0  basic_rf.o(i._Z7rf_initP10RF_RX_INFOhtt)
    i._Z7rx_taskv                            0x000059d0   Section        0  main.o(i._Z7rx_taskv)
    i._Z7tx_taskv                            0x00005aa0   Section        0  main.o(i._Z7tx_taskv)
    i._Z8_bmac_rxv                           0x00005b58   Section        0  bmac.o(i._Z8_bmac_rxv)
    i._Z8_bmac_txv                           0x00005bc4   Section        0  bmac.o(i._Z8_bmac_txv)
    i._Z8mrf_inith                           0x00005ca0   Section        0  mrf24j40.o(i._Z8mrf_inith)
    i._Z8mrf_rssiv                           0x00005ccc   Section        0  mrf24j40.o(i._Z8mrf_rssiv)
    i._Z8nrk_initv                           0x00005cf8   Section        0  nrk.o(i._Z8nrk_initv)
    i._Z8nrk_wait10nrk_time_t                0x00005da4   Section        0  nrk_task.o(i._Z8nrk_wait10nrk_time_t)
    i._Z8rf_rx_onv                           0x00005df8   Section        0  basic_rf.o(i._Z8rf_rx_onv)
    i._Z9PORT_INITv                          0x00005e18   Section        0  ulib.o(i._Z9PORT_INITv)
    i._Z9bmac_inith                          0x00005e30   Section        0  bmac.o(i._Z9bmac_inith)
    i._Z9initDEBUGv                          0x00005ea4   Section        0  ulib.o(i._Z9initDEBUGv)
    i._Z9mrf_reseth                          0x00005f40   Section        0  mrf24j40.o(i._Z9mrf_reseth)
    i._Z9nrk_startv                          0x00005ffc   Section        0  nrk.o(i._Z9nrk_startv)
    i._Z9rf_rx_offv                          0x00006084   Section        0  basic_rf.o(i._Z9rf_rx_offv)
    i._ZN27_INTERNAL_6_rtti_c_066a44b012tbc_downcastEPvPKSt9type_infoP28a_base_class_traversal_blockPN10__cxxabiv122__base_class_type_infoE 0x000060a4   Section        0  rtti.o(i._ZN27_INTERNAL_6_rtti_c_066a44b012tbc_downcastEPvPKSt9type_infoP28a_base_class_traversal_blockPN10__cxxabiv122__base_class_type_infoE)
    [local to rtti_c]::tbc_downcast(void*, const std::type_info*, a_base_class_traversal_block*, __cxxabiv1::__base_class_type_info*) 0x000060a5   Thumb Code    70  rtti.o(i._ZN27_INTERNAL_6_rtti_c_066a44b012tbc_downcastEPvPKSt9type_infoP28a_base_class_traversal_blockPN10__cxxabiv122__base_class_type_infoE)
    i._ZN27_INTERNAL_6_rtti_c_066a44b017tbc_post_downcastEPvPKSt9type_infoP28a_base_class_traversal_blockPN10__cxxabiv122__base_class_type_infoE 0x000060ea   Section        0  rtti.o(i._ZN27_INTERNAL_6_rtti_c_066a44b017tbc_post_downcastEPvPKSt9type_infoP28a_base_class_traversal_blockPN10__cxxabiv122__base_class_type_infoE)
    [local to rtti_c]::tbc_post_downcast(void*, const std::type_info*, a_base_class_traversal_block*, __cxxabiv1::__base_class_type_info*) 0x000060eb   Thumb Code    22  rtti.o(i._ZN27_INTERNAL_6_rtti_c_066a44b017tbc_post_downcastEPvPKSt9type_infoP28a_base_class_traversal_blockPN10__cxxabiv122__base_class_type_infoE)
    i._ZN27_INTERNAL_6_rtti_c_066a44b021traverse_base_classesEPvPKSt9type_infoP28a_base_class_traversal_blockPN10__cxxabiv122__base_class_type_infoE 0x00006100   Section        0  rtti.o(i._ZN27_INTERNAL_6_rtti_c_066a44b021traverse_base_classesEPvPKSt9type_infoP28a_base_class_traversal_blockPN10__cxxabiv122__base_class_type_infoE)
    [local to rtti_c]::traverse_base_classes(void*, const std::type_info*, a_base_class_traversal_block*, __cxxabiv1::__base_class_type_info*) 0x00006101   Thumb Code   156  rtti.o(i._ZN27_INTERNAL_6_rtti_c_066a44b021traverse_base_classesEPvPKSt9type_infoP28a_base_class_traversal_blockPN10__cxxabiv122__base_class_type_infoE)
    i._ZN27_INTERNAL_6_rtti_c_066a44b023find_base_class_at_addrEPvS0_PKSt9type_infoS3_Pi 0x000061a4   Section        0  rtti.o(i._ZN27_INTERNAL_6_rtti_c_066a44b023find_base_class_at_addrEPvS0_PKSt9type_infoS3_Pi)
    [local to rtti_c]::find_base_class_at_addr(void*, void*, const std::type_info*, const std::type_info*, int*) 0x000061a5   Thumb Code   182  rtti.o(i._ZN27_INTERNAL_6_rtti_c_066a44b023find_base_class_at_addrEPvS0_PKSt9type_infoS3_Pi)
    i._ZN27_INTERNAL_6_rtti_c_066a44b024get_virtual_base_pointerEPvPN10__cxxabiv122__base_class_type_infoE 0x00006264   Section        0  rtti.o(i._ZN27_INTERNAL_6_rtti_c_066a44b024get_virtual_base_pointerEPvPN10__cxxabiv122__base_class_type_infoE)
    [local to rtti_c]::get_virtual_base_pointer(void*, __cxxabiv1::__base_class_type_info*) 0x00006265   Thumb Code    14  rtti.o(i._ZN27_INTERNAL_6_rtti_c_066a44b024get_virtual_base_pointerEPvPN10__cxxabiv122__base_class_type_infoE)
    i._ZN27_INTERNAL_6_rtti_c_066a44b028derived_to_base_conversion_rEPvPS0_PKSt9type_infoS4_jPiiPS4_P19a_result_virtualityS5_ 0x00006274   Section        0  rtti.o(i._ZN27_INTERNAL_6_rtti_c_066a44b028derived_to_base_conversion_rEPvPS0_PKSt9type_infoS4_jPiiPS4_P19a_result_virtualityS5_)
    [local to rtti_c]::derived_to_base_conversion_r(void*, void**, const std::type_info*, const std::type_info*, unsigned, int*, int, const std::type_info**, a_result_virtuality*, int*) 0x00006275   Thumb Code   476  rtti.o(i._ZN27_INTERNAL_6_rtti_c_066a44b028derived_to_base_conversion_rEPvPS0_PKSt9type_infoS4_jPiiPS4_P19a_result_virtualityS5_)
    i._ZN4mbed4Base5clearEPKcPc              0x00006458   Section        0  Base.cpp.lpc1768.arm.o(i._ZN4mbed4Base5clearEPKcPc)
    i._ZN4mbed4Base6lookupEPKcj              0x00006488   Section        0  Base.cpp.lpc1768.arm.o(i._ZN4mbed4Base6lookupEPKcj)
    i._ZN4mbed4Base9list_objsEPKcPc          0x000064c0   Section        0  Base.cpp.lpc1768.arm.o(i._ZN4mbed4Base9list_objsEPKcPc)
    i._ZN4mbed4BaseC1EPKc                    0x00006500   Section        0  Base.cpp.lpc1768.arm.o(i._ZN4mbed4BaseC1EPKc)
    i._ZN4mbed4BaseD0Ev                      0x00006524   Section        0  Base.cpp.lpc1768.arm.o(i._ZN4mbed4BaseD0Ev)
    i._ZN4mbed4BaseD1Ev                      0x00006558   Section        0  Base.cpp.lpc1768.arm.o(i._ZN4mbed4BaseD1Ev)
    i._ZN4mbed9DigitalInC1E7PinNamePKc       0x00006590   Section        0  DigitalIn.cpp.lpc1768.arm.o(i._ZN4mbed9DigitalInC1E7PinNamePKc)
    i._ZN4mbed9DigitalInD0Ev                 0x000065b0   Section        0  DigitalIn.cpp.lpc1768.arm.o(i._ZN4mbed9DigitalInD0Ev)
    i._ZN4mbed9DigitalInD1Ev                 0x000065be   Section        0  DigitalIn.cpp.lpc1768.arm.o(i._ZN4mbed9DigitalInD1Ev)
    i._ZN4mbed9DigitalIncviEv                0x000065c2   Section        0  DigitalIn.cpp.lpc1768.arm.o(i._ZN4mbed9DigitalIncviEv)
    i._ZNKSt9type_infoeqERKS_                0x000065c8   Section        0  type_info_eq.o(i._ZNKSt9type_infoeqERKS_)
    i._ZdaPv                                 0x000065e8   Section        0  array_del.o(i._ZdaPv)
    i._ZdlPv                                 0x000065f0   Section        0  delete.o(i._ZdlPv)
    i.__ARM_common_get_typeid                0x000065f8   Section        0  rtti.o(i.__ARM_common_get_typeid)
    i.__ARM_fpclassify                       0x00006618   Section        0  fpclassify.o(i.__ARM_fpclassify)
    i.__derived_to_base_conversion           0x00006640   Section        0  rtti.o(i.__derived_to_base_conversion)
    i.__dynamic_cast                         0x000066b0   Section        0  rtti.o(i.__dynamic_cast)
    i.__mathlib_dbl_overflow                 0x00006764   Section        0  dunder.o(i.__mathlib_dbl_overflow)
    i.__mathlib_dbl_underflow                0x00006774   Section        0  dunder.o(i.__mathlib_dbl_underflow)
    i.__mathlib_flt_overflow                 0x00006784   Section        0  funder.o(i.__mathlib_flt_overflow)
    i.__mathlib_flt_underflow                0x0000678e   Section        0  funder.o(i.__mathlib_flt_underflow)
    i.__mathlib_narrow                       0x00006798   Section        0  narrow.o(i.__mathlib_narrow)
    i.__mathlib_tofloat                      0x000067a8   Section        0  narrow.o(i.__mathlib_tofloat)
    i.__sti___8_main_cpp_7b2698e3            0x00006864   Section        0  main.o(i.__sti___8_main_cpp_7b2698e3)
    __sti___8_main_cpp_7b2698e3              0x00006865   Thumb Code    24  main.o(i.__sti___8_main_cpp_7b2698e3)
    i.__support_ldexp                        0x0000688c   Section        0  ldexp.o(i.__support_ldexp)
    i.__user_setup_stackheap                 0x000068a4   Section        0  stackheap.o(i.__user_setup_stackheap)
    i._is_digit                              0x000068b0   Section        0  __printf_wp.o(i._is_digit)
    i._nrk_timer_tick                        0x000068be   Section        0  nrk.o(i._nrk_timer_tick)
    i._sys_close                             0x000068c4   Section        0  stdio.cpp.lpc1768.arm.o(i._sys_close)
    i._sys_flen                              0x000068f0   Section        0  stdio.cpp.lpc1768.arm.o(i._sys_flen)
    i._sys_istty                             0x00006918   Section        0  stdio.cpp.lpc1768.arm.o(i._sys_istty)
    i._sys_open                              0x00006940   Section        0  stdio.cpp.lpc1768.arm.o(i._sys_open)
    i._sys_seek                              0x00006ac4   Section        0  stdio.cpp.lpc1768.arm.o(i._sys_seek)
    i._sys_write                             0x00006af0   Section        0  stdio.cpp.lpc1768.arm.o(i._sys_write)
    i.clock                                  0x00006b44   Section        0  rtc_time.c.lpc1768.arm.o(i.clock)
    i.exit                                   0x00006b64   Section        0  exit.c.lpc1768.arm.o(i.exit)
    i.fputc                                  0x00006b7a   Section        0  fputc.o(i.fputc)
    i.frexp                                  0x00006b94   Section        0  frexp.o(i.frexp)
    i.gpio_input                             0x00006bec   Section        0  gpio_api.c.lpc1768.arm.o(i.gpio_input)
    i.gpio_output                            0x00006c1c   Section        0  gpio_api.c.lpc1768.arm.o(i.gpio_output)
    i.gpio_read                              0x00006c4c   Section        0  gpio_api.c.lpc1768.arm.o(i.gpio_read)
    i.gpio_write                             0x00006c64   Section        0  gpio_api.c.lpc1768.arm.o(i.gpio_write)
    i.ldexp                                  0x00006c7c   Section        0  ldexp.o(i.ldexp)
    i.main                                   0x00006cf0   Section        0  main.o(i.main)
    i.mbed_die                               0x00006d48   Section        0  utils_api.c.lpc1768.arm.o(i.mbed_die)
    i.pin_function                           0x00006dc0   Section        0  pinmap.c.lpc1768.arm.o(i.pin_function)
    i.pin_mode                               0x00006df8   Section        0  pinmap.c.lpc1768.arm.o(i.pin_mode)
    i.pinmap_merge                           0x00006e30   Section        0  pinmap.c.lpc1768.arm.o(i.pinmap_merge)
    i.pinmap_peripheral                      0x00006e6c   Section        0  pinmap.c.lpc1768.arm.o(i.pinmap_peripheral)
    i.pinmap_pinout                          0x00006ec4   Section        0  pinmap.c.lpc1768.arm.o(i.pinmap_pinout)
    i.scalbnf                                0x00006f68   Section        0  scalbnf.o(i.scalbnf)
    i.semihost_exit                          0x00006fbc   Section        0  semihost_api.c.lpc1768.arm.o(i.semihost_exit)
    i.serial_baud                            0x00006fc8   Section        0  serial_api.c.lpc1768.arm.o(i.serial_baud)
    i.serial_format                          0x000070c8   Section        0  serial_api.c.lpc1768.arm.o(i.serial_format)
    i.serial_init                            0x0000715c   Section        0  serial_api.c.lpc1768.arm.o(i.serial_init)
    i.serial_putc                            0x00007240   Section        0  serial_api.c.lpc1768.arm.o(i.serial_putc)
    i.timer_frequency                        0x0000724c   Section        0  timer_api.c.lpc1768.arm.o(i.timer_frequency)
    i.timer_init                             0x00007260   Section        0  timer_api.c.lpc1768.arm.o(i.timer_init)
    i.timer_read                             0x000072d0   Section        0  timer_api.c.lpc1768.arm.o(i.timer_read)
    i.timer_start                            0x000072d4   Section        0  timer_api.c.lpc1768.arm.o(i.timer_start)
    i.us_ticker_read                         0x000072e0   Section        0  us_ticker_api.c.lpc1768.arm.o(i.us_ticker_read)
    i.wait_ms                                0x00007318   Section        0  wait_api.c.lpc1768.arm.o(i.wait_ms)
    i.wait_us                                0x00007334   Section        0  wait_api.c.lpc1768.arm.o(i.wait_us)
    locale$$code                             0x0000734c   Section       44  lc_ctype_c.o(locale$$code)
    locale$$code                             0x00007378   Section       44  lc_numeric_c.o(locale$$code)
    x$fpl$d2f                                0x000073a4   Section       98  d2f.o(x$fpl$d2f)
    x$fpl$dcheck1                            0x00007408   Section       16  dcheck1.o(x$fpl$dcheck1)
    x$fpl$dcmpinf                            0x00007418   Section       24  dcmpi.o(x$fpl$dcmpinf)
    x$fpl$deqf                               0x00007430   Section      120  deqf.o(x$fpl$deqf)
    x$fpl$dleqf                              0x000074a8   Section      120  dleqf.o(x$fpl$dleqf)
    x$fpl$dnaninf                            0x00007520   Section      156  dnaninf.o(x$fpl$dnaninf)
    x$fpl$drleqf                             0x000075bc   Section      108  drleqf.o(x$fpl$drleqf)
    x$fpl$fadd                               0x00007628   Section      196  faddsub_clz.o(x$fpl$fadd)
    _fadd1                                   0x00007637   Thumb Code     0  faddsub_clz.o(x$fpl$fadd)
    x$fpl$fcheck1                            0x000076ec   Section       12  fcheck1.o(x$fpl$fcheck1)
    x$fpl$fdiv                               0x000076f8   Section      388  fdiv.o(x$fpl$fdiv)
    _fdiv1                                   0x000076f9   Thumb Code     0  fdiv.o(x$fpl$fdiv)
    x$fpl$ffix                               0x0000787c   Section       54  ffix.o(x$fpl$ffix)
    x$fpl$fflt                               0x000078b4   Section       48  fflt_clz.o(x$fpl$fflt)
    x$fpl$ffltu                              0x000078e4   Section       38  fflt_clz.o(x$fpl$ffltu)
    x$fpl$fmul                               0x0000790c   Section      258  fmul.o(x$fpl$fmul)
    x$fpl$fnaninf                            0x00007a0e   Section      140  fnaninf.o(x$fpl$fnaninf)
    x$fpl$fretinf                            0x00007a9a   Section       10  fretinf.o(x$fpl$fretinf)
    x$fpl$fsub                               0x00007aa4   Section      234  faddsub_clz.o(x$fpl$fsub)
    _fsub1                                   0x00007ab3   Thumb Code     0  faddsub_clz.o(x$fpl$fsub)
    x$fpl$ieeestatus                         0x00007b8e   Section        6  istatus.o(x$fpl$ieeestatus)
    x$fpl$printf1                            0x00007b94   Section        4  printf1.o(x$fpl$printf1)
    x$fpl$printf2                            0x00007b98   Section        4  printf2.o(x$fpl$printf2)
    x$fpl$retnan                             0x00007b9c   Section      100  retnan.o(x$fpl$retnan)
    x$fpl$scalbn                             0x00007c00   Section       92  scalbn.o(x$fpl$scalbn)
    x$fpl$scalbnf                            0x00007c5c   Section       76  scalbnf.o(x$fpl$scalbnf)
    x$fpl$scanf1                             0x00007ca8   Section        4  scanf1.o(x$fpl$scanf1)
    x$fpl$scanf2                             0x00007cac   Section        8  scanf2.o(x$fpl$scanf2)
    x$fpl$trapveneer                         0x00007cb4   Section       48  trapv.o(x$fpl$trapveneer)
    .constdata                               0x00007ce4   Section       24  Base.cpp.lpc1768.arm.o(.constdata)
    x$fpl$usenofp                            0x00007ce4   Section        0  usenofp.o(x$fpl$usenofp)
    .constdata                               0x00007cfc   Section       23  stdio.cpp.lpc1768.arm.o(.constdata)
    .constdata                               0x00007d14   Section      340  serial_api.c.lpc1768.arm.o(.constdata)
    PinMap_UART_TX                           0x00007d14   Data         108  serial_api.c.lpc1768.arm.o(.constdata)
    PinMap_UART_RX                           0x00007d80   Data         108  serial_api.c.lpc1768.arm.o(.constdata)
    .constdata                               0x00007e68   Section       40  _printf_hex_int_ll_ptr.o(.constdata)
    uc_hextab                                0x00007e68   Data          20  _printf_hex_int_ll_ptr.o(.constdata)
    lc_hextab                                0x00007e7c   Data          20  _printf_hex_int_ll_ptr.o(.constdata)
    .constdata                               0x00007e90   Section       17  __printf_flags_ss_wp.o(.constdata)
    maptable                                 0x00007e90   Data          17  __printf_flags_ss_wp.o(.constdata)
    .constdata                               0x00007ea4   Section        4  aeabi_clocks.o(.constdata)
    .constdata                               0x00007ea8   Section        8  _printf_wctomb.o(.constdata)
    initial_mbstate                          0x00007ea8   Data           8  _printf_wctomb.o(.constdata)
    .constdata                               0x00007eb0   Section       38  _printf_fp_hex.o(.constdata)
    lc_hextab                                0x00007eb0   Data          19  _printf_fp_hex.o(.constdata)
    uc_hextab                                0x00007ec3   Data          19  _printf_fp_hex.o(.constdata)
    .constdata                               0x00007ed8   Section      148  bigflt0.o(.constdata)
    tenpwrs_x                                0x00007ed8   Data          60  bigflt0.o(.constdata)
    tenpwrs_i                                0x00007f14   Data          64  bigflt0.o(.constdata)
    .constdata__ZTIN10__cxxabiv117__class_type_infoE 0x00007f6c   Section       12  lib_rtti_impl.o(.constdata__ZTIN10__cxxabiv117__class_type_infoE)
    .constdata__ZTIN10__cxxabiv120__si_class_type_infoE 0x00007f78   Section       12  lib_rtti_impl.o(.constdata__ZTIN10__cxxabiv120__si_class_type_infoE)
    .constdata__ZTIN10__cxxabiv121__vmi_class_type_infoE 0x00007f84   Section       12  lib_rtti_impl.o(.constdata__ZTIN10__cxxabiv121__vmi_class_type_infoE)
    .constdata__ZTIN4mbed10FileHandleE       0x00007f90   Section        8  stdio.cpp.lpc1768.arm.o(.constdata__ZTIN4mbed10FileHandleE)
    .constdata__ZTIN4mbed14FileSystemLikeE   0x00007f98   Section       12  Base.cpp.lpc1768.arm.o(.constdata__ZTIN4mbed14FileSystemLikeE)
    .constdata__ZTIN4mbed4BaseE              0x00007fa4   Section        8  Base.cpp.lpc1768.arm.o(.constdata__ZTIN4mbed4BaseE)
    .constdata__ZTIN4mbed8FileLikeE          0x00007fac   Section       32  stdio.cpp.lpc1768.arm.o(.constdata__ZTIN4mbed8FileLikeE)
    .constdata__ZTIN4mbed9DigitalInE         0x00007fcc   Section       12  DigitalIn.cpp.lpc1768.arm.o(.constdata__ZTIN4mbed9DigitalInE)
    .constdata__ZTISt9type_info              0x00007fd8   Section        8  type_info_dtor.o(.constdata__ZTISt9type_info)
    .constdata__ZTSN10__cxxabiv117__class_type_infoE 0x00007fe0   Section       34  lib_rtti_impl.o(.constdata__ZTSN10__cxxabiv117__class_type_infoE)
    .constdata__ZTSN10__cxxabiv120__si_class_type_infoE 0x00008002   Section       37  lib_rtti_impl.o(.constdata__ZTSN10__cxxabiv120__si_class_type_infoE)
    .constdata__ZTSN10__cxxabiv121__vmi_class_type_infoE 0x00008027   Section       38  lib_rtti_impl.o(.constdata__ZTSN10__cxxabiv121__vmi_class_type_infoE)
    .constdata__ZTSN4mbed10FileHandleE       0x0000804d   Section       20  stdio.cpp.lpc1768.arm.o(.constdata__ZTSN4mbed10FileHandleE)
    .constdata__ZTSN4mbed14FileSystemLikeE   0x00008061   Section       24  Base.cpp.lpc1768.arm.o(.constdata__ZTSN4mbed14FileSystemLikeE)
    .constdata__ZTSN4mbed4BaseE              0x00008079   Section       13  Base.cpp.lpc1768.arm.o(.constdata__ZTSN4mbed4BaseE)
    .constdata__ZTSN4mbed8FileLikeE          0x00008086   Section       17  stdio.cpp.lpc1768.arm.o(.constdata__ZTSN4mbed8FileLikeE)
    .constdata__ZTSN4mbed9DigitalInE         0x00008097   Section       18  DigitalIn.cpp.lpc1768.arm.o(.constdata__ZTSN4mbed9DigitalInE)
    .constdata__ZTSSt9type_info              0x000080a9   Section       13  type_info_dtor.o(.constdata__ZTSSt9type_info)
    .constdata__ZTVN10__cxxabiv117__class_type_infoE 0x000080b8   Section       16  lib_rtti_impl.o(.constdata__ZTVN10__cxxabiv117__class_type_infoE)
    .constdata__ZTVN10__cxxabiv120__si_class_type_infoE 0x000080c8   Section       16  lib_rtti_impl.o(.constdata__ZTVN10__cxxabiv120__si_class_type_infoE)
    .constdata__ZTVN10__cxxabiv121__vmi_class_type_infoE 0x000080d8   Section       16  lib_rtti_impl.o(.constdata__ZTVN10__cxxabiv121__vmi_class_type_infoE)
    .constdata__ZTVN4mbed4BaseE              0x000080e8   Section       24  Base.cpp.lpc1768.arm.o(.constdata__ZTVN4mbed4BaseE)
    .constdata__ZTVN4mbed9DigitalInE         0x00008100   Section       24  DigitalIn.cpp.lpc1768.arm.o(.constdata__ZTVN4mbed9DigitalInE)
    .conststring                             0x00008118   Section       14  Base.cpp.lpc1768.arm.o(.conststring)
    .conststring                             0x00008126   Section        5  Base.cpp.lpc1768.arm.o(.conststring)
    c$$dinf                                  0x0000814c   Section        8  fpconst.o(c$$dinf)
    c$$dmax                                  0x00008154   Section        8  fpconst.o(c$$dmax)
    locale$$data                             0x0000815c   Section      272  lc_ctype_c.o(locale$$data)
    __lcctype_c_name                         0x00008160   Data           2  lc_ctype_c.o(locale$$data)
    __lcctype_c_start                        0x00008168   Data           0  lc_ctype_c.o(locale$$data)
    locale$$data                             0x0000826c   Section       28  lc_numeric_c.o(locale$$data)
    __lcctype_c_end                          0x0000826c   Data           0  lc_ctype_c.o(locale$$data)
    __lcnum_c_name                           0x00008270   Data           2  lc_numeric_c.o(locale$$data)
    __lcnum_c_start                          0x00008278   Data           0  lc_numeric_c.o(locale$$data)
    __lcnum_c_point                          0x00008284   Data           0  lc_numeric_c.o(locale$$data)
    __lcnum_c_thousands                      0x00008286   Data           0  lc_numeric_c.o(locale$$data)
    __lcnum_c_grouping                       0x00008287   Data           0  lc_numeric_c.o(locale$$data)
    .init_array                              0x00008288   Section        4  main.o(.init_array)
    __lcnum_c_end                            0x00008288   Data           0  lc_numeric_c.o(locale$$data)
    .init_array                              0x0000828c   Section        0  init_aeabi.o(.init_array)
    .ARM.__AT_0x10000000                     0x10000000   Section      196  cmsis_nvic.o(.ARM.__AT_0x10000000)
    vectors                                  0x10000000   Data         196  cmsis_nvic.o(.ARM.__AT_0x10000000)
    .data                                    0x100000c4   Section        2  nrk_timer.o(.data)
    .data                                    0x100000c8   Section        4  nrk.o(.data)
    .data                                    0x100000cc   Section        1  nrk.o(.data)
    .data                                    0x100000d0   Section       20  nrk.o(.data)
    .data                                    0x100000e4   Section        8  nrk.o(.data)
    .data                                    0x100000ec   Section        2  nrk_error.o(.data)
    .data                                    0x100000f0   Section        4  nrk_events.o(.data)
    .data                                    0x100000f4   Section        8  nrk_scheduler.o(.data)
    .data                                    0x100000fc   Section        4  mrf24j40.o(.data)
    .data                                    0x10000100   Section        6  basic_rf.o(.data)
    .data                                    0x10000108   Section       24  bmac.o(.data)
    tx_data_ready                            0x1000010b   Data           1  bmac.o(.data)
    rx_buf_empty                             0x1000010c   Data           1  bmac.o(.data)
    bmac_running                             0x1000010d   Data           1  bmac.o(.data)
    pkt_got_ack                              0x1000010e   Data           1  bmac.o(.data)
    g_chan                                   0x1000010f   Data           1  bmac.o(.data)
    is_enabled                               0x10000110   Data           1  bmac.o(.data)
    cca_active                               0x10000111   Data           1  bmac.o(.data)
    tx_reserve                               0x10000112   Data           1  bmac.o(.data)
    rx_failure_cnt                           0x10000114   Data           4  bmac.o(.data)
    _bmac_check_period                       0x10000118   Data           8  bmac.o(.data)
    .data                                    0x10000120   Section       32  main.o(.data)
    clearToTx                                0x10000120   Data           1  main.o(.data)
    rxContentSuccess1                        0x10000122   Data           2  main.o(.data)
    mrfRxISRcallbackCounter                  0x10000124   Data           2  main.o(.data)
    sentPackets                              0x10000126   Data           2  main.o(.data)
    .data                                    0x10000140   Section        4  system_LPC17xx.o(.data)
    .data                                    0x10000144   Section        8  Base.cpp.lpc1768.arm.o(.data)
    .data                                    0x1000014c   Section       12  Base.cpp.lpc1768.arm.o(.data)
    .data                                    0x10000158   Section        4  us_ticker_api.c.lpc1768.arm.o(.data)
    us_ticker_running                        0x10000158   Data           4  us_ticker_api.c.lpc1768.arm.o(.data)
    .data                                    0x1000015c   Section        4  stdio_streams.o(.data)
    .data                                    0x10000160   Section        4  stdio_streams.o(.data)
    .data                                    0x10000164   Section        4  stdio_streams.o(.data)
    .data                                    0x10000168   Section        4  heapauxa.o(.data)
    __rt_heap_escrow_base                    0x10000168   Data           4  heapauxa.o(.data)
    .bss                                     0x1000016c   Section      128  nrk.o(.bss)
    .bss                                     0x100001ec   Section      700  nrk.o(.bss)
    .bss                                     0x100004a8   Section       12  basic_rf.o(.bss)
    .bss                                     0x100004b4   Section      328  bmac.o(.bss)
    bmac_task                                0x100004b4   Data          44  bmac.o(.bss)
    bmac_task_stack                          0x100004e0   Data         256  bmac.o(.bss)
    .bss                                     0x100005fc   Section     1364  main.o(.bss)
    .bss                                     0x10000b50   Section       64  stdio.cpp.lpc1768.arm.o(.bss)
    filehandles                              0x10000b50   Data          64  stdio.cpp.lpc1768.arm.o(.bss)
    .bss                                     0x10000b90   Section       84  stdio_streams.o(.bss)
    .bss                                     0x10000be4   Section       84  stdio_streams.o(.bss)
    .bss                                     0x10000c38   Section       84  stdio_streams.o(.bss)
    .bss                                     0x10000c8c   Section      228  rand.o(.bss)
    .bss                                     0x10000d70   Section        4  rt_ddtor_pointer_addr.o(.bss)
    __rt_ddtor_pointer_addr_data             0x10000d70   Data           4  rt_ddtor_pointer_addr.o(.bss)
    .bss                                     0x10000d74   Section        4  rt_errno_addr.o(.bss)
    __aeabi_errno_addr_data                  0x10000d74   Data           4  rt_errno_addr.o(.bss)
    .bss                                     0x10000d78   Section        4  rt_heap_descriptor.o(.bss)
    __rt_heap_descriptor_data                0x10000d78   Data           4  rt_heap_descriptor.o(.bss)
    .bss                                     0x10000d7c   Section       20  rt_locale.o(.bss)
    __rt_locale_data                         0x10000d7c   Data          20  rt_locale.o(.bss)
    .bss                                     0x10000d90   Section        4  rt_eh_globals_addr.o(.bss)
    __rt_eh_globals_addr_data                0x10000d90   Data           4  rt_eh_globals_addr.o(.bss)

    Global Symbols

    Symbol Name                              Value     Ov Type        Size  Object(Section)

    BuildAttributes$$THM_ISAv4$P$D$K$B$S$PE$A:L22UL41UL21$X:L11$S22US41US21$IEEE1$IW$USESV6$~STKCKD$USESV7$~SHL$OTIME$ROPI$IEEEX$EBA8$UX$STANDARDLIB$REQ8$PRES8$EABIv2 0x00000000   Number         0  anon$$obj.o ABSOLUTE
    __ARM_use_no_argv                        0x00000000   Number         0  main.o ABSOLUTE
    __Vectors                                0x00000000   Data           4  startup_LPC17xx.o(RESET)
    __dso_handle                             0x00000000   Number         0  startup_LPC17xx.o(RESET)
    _printf_flags                            0x00000000   Number         0  printf_stubs.o ABSOLUTE
    _printf_return_value                     0x00000000   Number         0  printf_stubs.o ABSOLUTE
    _printf_sizespec                         0x00000000   Number         0  printf_stubs.o ABSOLUTE
    _printf_widthprec                        0x00000000   Number         0  printf_stubs.o ABSOLUTE
    SHT$$ARM_EXIDX$$Base                      - Undefined Reference
    SHT$$ARM_EXIDX$$Limit                     - Undefined Reference
    __ARM::default_unexpected_handler()       - Undefined Weak Reference
    __ARM_exceptions_buffer_required          - Undefined Weak Reference
    __ARM_exceptions_init                     - Undefined Weak Reference
    __aeabi_unwind_cpp_pr1                    - Undefined Weak Reference
    __aeabi_unwind_cpp_pr2                    - Undefined Weak Reference
    __alloca_initialize                       - Undefined Weak Reference
    __arm_preinit_                            - Undefined Weak Reference
    __cxa_begin_cleanup                       - Undefined Weak Reference
    __cxa_type_match                          - Undefined Weak Reference
    __rt_lib_shutdown                         - Undefined Weak Reference
    __sigvec_lookup                           - Undefined Weak Reference
    __user_heap_extent                        - Undefined Weak Reference
    _atexit_init                              - Undefined Weak Reference
    _clock_init                               - Undefined Weak Reference
    _fp_trap_init                             - Undefined Weak Reference
    _fp_trap_shutdown                         - Undefined Weak Reference
    _get_lc_collate                           - Undefined Weak Reference
    _get_lc_monetary                          - Undefined Weak Reference
    _get_lc_time                              - Undefined Weak Reference
    _getenv_init                              - Undefined Weak Reference
    _handle_redirection                       - Undefined Weak Reference
    _mutex_acquire                            - Undefined Weak Reference
    _mutex_free                               - Undefined Weak Reference
    _mutex_release                            - Undefined Weak Reference
    _printf_mbtowc                            - Undefined Weak Reference
    _printf_wc                                - Undefined Weak Reference
    _signal_finish                            - Undefined Weak Reference
    _signal_init                              - Undefined Weak Reference
    __main                                   0x000000c5   Thumb Code     8  __main.o(!!!main)
    __scatterload                            0x000000cd   Thumb Code     0  __scatter.o(!!!scatter)
    __scatterload_rt2                        0x000000cd   Thumb Code    44  __scatter.o(!!!scatter)
    __scatterload_rt2_thumb_only             0x000000cd   Thumb Code     0  __scatter.o(!!!scatter)
    __scatterload_null                       0x000000db   Thumb Code     0  __scatter.o(!!!scatter)
    __decompress                             0x00000101   Thumb Code    58  __dczerorl.o(!!dczerorl)
    __decompress0                            0x00000101   Thumb Code     0  __dczerorl.o(!!dczerorl)
    __scatterload_zeroinit                   0x0000013d   Thumb Code    28  __scatter_zi.o(!!handler_zi)
    _printf_n                                0x00000159   Thumb Code     0  _printf_n.o(.ARM.Collect$$_printf_percent$$00000001)
    _printf_percent                          0x00000159   Thumb Code     0  _printf_percent.o(.ARM.Collect$$_printf_percent$$00000000)
    _printf_p                                0x0000015f   Thumb Code     0  _printf_p.o(.ARM.Collect$$_printf_percent$$00000002)
    _printf_f                                0x00000165   Thumb Code     0  _printf_f.o(.ARM.Collect$$_printf_percent$$00000003)
    _printf_e                                0x0000016b   Thumb Code     0  _printf_e.o(.ARM.Collect$$_printf_percent$$00000004)
    _printf_g                                0x00000171   Thumb Code     0  _printf_g.o(.ARM.Collect$$_printf_percent$$00000005)
    _printf_a                                0x00000177   Thumb Code     0  _printf_a.o(.ARM.Collect$$_printf_percent$$00000006)
    _printf_ll                               0x0000017d   Thumb Code     0  _printf_ll.o(.ARM.Collect$$_printf_percent$$00000007)
    _printf_i                                0x00000187   Thumb Code     0  _printf_i.o(.ARM.Collect$$_printf_percent$$00000008)
    _printf_d                                0x0000018d   Thumb Code     0  _printf_d.o(.ARM.Collect$$_printf_percent$$00000009)
    _printf_u                                0x00000193   Thumb Code     0  _printf_u.o(.ARM.Collect$$_printf_percent$$0000000A)
    _printf_o                                0x00000199   Thumb Code     0  _printf_o.o(.ARM.Collect$$_printf_percent$$0000000B)
    _printf_x                                0x0000019f   Thumb Code     0  _printf_x.o(.ARM.Collect$$_printf_percent$$0000000C)
    _printf_lli                              0x000001a5   Thumb Code     0  _printf_lli.o(.ARM.Collect$$_printf_percent$$0000000D)
    _printf_lld                              0x000001ab   Thumb Code     0  _printf_lld.o(.ARM.Collect$$_printf_percent$$0000000E)
    _printf_llu                              0x000001b1   Thumb Code     0  _printf_llu.o(.ARM.Collect$$_printf_percent$$0000000F)
    _printf_llo                              0x000001b7   Thumb Code     0  _printf_llo.o(.ARM.Collect$$_printf_percent$$00000010)
    _printf_llx                              0x000001bd   Thumb Code     0  _printf_llx.o(.ARM.Collect$$_printf_percent$$00000011)
    _printf_l                                0x000001c3   Thumb Code     0  _printf_l.o(.ARM.Collect$$_printf_percent$$00000012)
    _printf_c                                0x000001cd   Thumb Code     0  _printf_c.o(.ARM.Collect$$_printf_percent$$00000013)
    _printf_s                                0x000001d3   Thumb Code     0  _printf_s.o(.ARM.Collect$$_printf_percent$$00000014)
    _printf_lc                               0x000001d9   Thumb Code     0  _printf_lc.o(.ARM.Collect$$_printf_percent$$00000015)
    _printf_ls                               0x000001df   Thumb Code     0  _printf_ls.o(.ARM.Collect$$_printf_percent$$00000016)
    _printf_percent_end                      0x000001e5   Thumb Code     0  _printf_percent_end.o(.ARM.Collect$$_printf_percent$$00000017)
    __rt_lib_init                            0x000001e9   Thumb Code     0  libinit.o(.ARM.Collect$$libinit$$00000000)
    __rt_lib_init_fp_1                       0x000001eb   Thumb Code     0  libinit2.o(.ARM.Collect$$libinit$$00000002)
    __rt_lib_init_heap_2                     0x000001eb   Thumb Code     0  libinit2.o(.ARM.Collect$$libinit$$00000005)
    __rt_lib_init_preinit_1                  0x000001eb   Thumb Code     0  libinit2.o(.ARM.Collect$$libinit$$00000004)
    __rt_lib_init_heap_1                     0x000001f3   Thumb Code     0  libinit2.o(.ARM.Collect$$libinit$$0000000A)
    __rt_lib_init_rand_2                     0x000001f3   Thumb Code     0  libinit2.o(.ARM.Collect$$libinit$$0000000D)
    __rt_lib_init_user_alloc_1               0x000001f3   Thumb Code     0  libinit2.o(.ARM.Collect$$libinit$$0000000C)
    __rt_lib_init_lc_common                  0x000001f7   Thumb Code     0  libinit2.o(.ARM.Collect$$libinit$$0000000F)
    __rt_lib_init_rand_1                     0x000001f7   Thumb Code     0  libinit2.o(.ARM.Collect$$libinit$$0000000E)
    __rt_lib_init_lc_collate_1               0x000001fd   Thumb Code     0  libinit2.o(.ARM.Collect$$libinit$$00000011)
    __rt_lib_init_lc_ctype_2                 0x000001fd   Thumb Code     0  libinit2.o(.ARM.Collect$$libinit$$00000012)
    __rt_lib_init_lc_ctype_1                 0x00000209   Thumb Code     0  libinit2.o(.ARM.Collect$$libinit$$00000013)
    __rt_lib_init_lc_monetary_1              0x00000209   Thumb Code     0  libinit2.o(.ARM.Collect$$libinit$$00000015)
    __rt_lib_init_lc_numeric_2               0x00000209   Thumb Code     0  libinit2.o(.ARM.Collect$$libinit$$00000016)
    __rt_lib_init_atexit_1                   0x00000213   Thumb Code     0  libinit2.o(.ARM.Collect$$libinit$$0000001B)
    __rt_lib_init_clock_1                    0x00000213   Thumb Code     0  libinit2.o(.ARM.Collect$$libinit$$00000021)
    __rt_lib_init_fp_trap_1                  0x00000213   Thumb Code     0  libinit2.o(.ARM.Collect$$libinit$$0000001F)
    __rt_lib_init_getenv_1                   0x00000213   Thumb Code     0  libinit2.o(.ARM.Collect$$libinit$$00000023)
    __rt_lib_init_lc_numeric_1               0x00000213   Thumb Code     0  libinit2.o(.ARM.Collect$$libinit$$00000017)
    __rt_lib_init_lc_time_1                  0x00000213   Thumb Code     0  libinit2.o(.ARM.Collect$$libinit$$00000019)
    __rt_lib_init_signal_1                   0x00000213   Thumb Code     0  libinit2.o(.ARM.Collect$$libinit$$0000001D)
    __rt_lib_init_stdio_2                    0x00000213   Thumb Code     0  libinit2.o(.ARM.Collect$$libinit$$00000024)
    __rt_lib_init_alloca_1                   0x00000217   Thumb Code     0  libinit2.o(.ARM.Collect$$libinit$$0000002E)
    __rt_lib_init_argv_1                     0x00000217   Thumb Code     0  libinit2.o(.ARM.Collect$$libinit$$0000002C)
    __rt_lib_init_cpp_2                      0x00000217   Thumb Code     0  libinit2.o(.ARM.Collect$$libinit$$00000031)
    __rt_lib_init_exceptions_1               0x00000217   Thumb Code     0  libinit2.o(.ARM.Collect$$libinit$$00000030)
    __rt_lib_init_stdio_1                    0x00000217   Thumb Code     0  libinit2.o(.ARM.Collect$$libinit$$00000025)
    __rt_lib_init_cpp_1                      0x0000021b   Thumb Code     0  libinit2.o(.ARM.Collect$$libinit$$00000032)
    __rt_lib_init_return                     0x0000021b   Thumb Code     0  libinit2.o(.ARM.Collect$$libinit$$00000033)
    __rt_entry                               0x0000021d   Thumb Code     0  __rtentry.o(.ARM.Collect$$rtentry$$00000000)
    __rt_entry_presh_1                       0x0000021d   Thumb Code     0  __rtentry2.o(.ARM.Collect$$rtentry$$00000002)
    __rt_entry_sh                            0x0000021d   Thumb Code     0  __rtentry4.o(.ARM.Collect$$rtentry$$00000004)
    __rt_lib_shutdown_cpp_2                  0x0000021d   Thumb Code     0  libshutdown2.o(.ARM.Collect$$libshutdown$$00000002)
    __rt_lib_shutdown_stdio_2                0x0000021d   Thumb Code     0  libshutdown2.o(.ARM.Collect$$libshutdown$$00000004)
    __rt_entry_li                            0x00000223   Thumb Code     0  __rtentry2.o(.ARM.Collect$$rtentry$$0000000A)
    __rt_entry_postsh_1                      0x00000223   Thumb Code     0  __rtentry2.o(.ARM.Collect$$rtentry$$00000009)
    __rt_entry_main                          0x00000227   Thumb Code     0  __rtentry2.o(.ARM.Collect$$rtentry$$0000000D)
    __rt_entry_postli_1                      0x00000227   Thumb Code     0  __rtentry2.o(.ARM.Collect$$rtentry$$0000000C)
    rand                                     0x00000231   Thumb Code    48  rand.o(.emb_text)
    _maybe_terminate_alloc                   0x00000265   Thumb Code     0  maybetermalloc1.o(.emb_text)
    _nrk_spin_wait_1us                       0x00000265   Thumb Code     0  my_asm.o(.text)
    nrk_start_high_ready_task                0x00000273   Thumb Code     0  my_asm.o(.text)
    _swap                                    0x0000028d   Thumb Code     0  my_asm.o(.text)
    PendSV_Handler                           0x00000297   Thumb Code     0  my_asm.o(.text)
    Switch                                   0x000002b1   Thumb Code     0  my_asm.o(.text)
    fprintf                                  0x000002dd   Thumb Code    20  fprintf.o(.text)
    __rt_ddtor_pointer_addr                  0x000002f1   Thumb Code     8  rt_ddtor_pointer_addr.o(.text)
    __cxa_bad_typeid                         0x000002f9   Thumb Code     4  arm_bad_typeid_noexceptions.o(.text)
    Reset_Handler                            0x00000301   Thumb Code     8  startup_LPC17xx.o(.text)
    NMI_Handler                              0x00000309   Thumb Code     2  startup_LPC17xx.o(.text)
    HardFault_Handler                        0x0000030b   Thumb Code     2  startup_LPC17xx.o(.text)
    MemManage_Handler                        0x0000030d   Thumb Code     2  startup_LPC17xx.o(.text)
    BusFault_Handler                         0x0000030f   Thumb Code     2  startup_LPC17xx.o(.text)
    UsageFault_Handler                       0x00000311   Thumb Code     2  startup_LPC17xx.o(.text)
    SVC_Handler                              0x00000313   Thumb Code     2  startup_LPC17xx.o(.text)
    DebugMon_Handler                         0x00000315   Thumb Code     2  startup_LPC17xx.o(.text)
    SysTick_Handler                          0x00000319   Thumb Code     2  startup_LPC17xx.o(.text)
    ADC_IRQHandler                           0x0000031b   Thumb Code     0  startup_LPC17xx.o(.text)
    BOD_IRQHandler                           0x0000031b   Thumb Code     0  startup_LPC17xx.o(.text)
    CAN_IRQHandler                           0x0000031b   Thumb Code     0  startup_LPC17xx.o(.text)
    DMA_IRQHandler                           0x0000031b   Thumb Code     0  startup_LPC17xx.o(.text)
    EINT0_IRQHandler                         0x0000031b   Thumb Code     0  startup_LPC17xx.o(.text)
    EINT1_IRQHandler                         0x0000031b   Thumb Code     0  startup_LPC17xx.o(.text)
    EINT2_IRQHandler                         0x0000031b   Thumb Code     0  startup_LPC17xx.o(.text)
    ENET_IRQHandler                          0x0000031b   Thumb Code     0  startup_LPC17xx.o(.text)
    I2C0_IRQHandler                          0x0000031b   Thumb Code     0  startup_LPC17xx.o(.text)
    I2C1_IRQHandler                          0x0000031b   Thumb Code     0  startup_LPC17xx.o(.text)
    I2C2_IRQHandler                          0x0000031b   Thumb Code     0  startup_LPC17xx.o(.text)
    I2S_IRQHandler                           0x0000031b   Thumb Code     0  startup_LPC17xx.o(.text)
    MCPWM_IRQHandler                         0x0000031b   Thumb Code     0  startup_LPC17xx.o(.text)
    PLL0_IRQHandler                          0x0000031b   Thumb Code     0  startup_LPC17xx.o(.text)
    PLL1_IRQHandler                          0x0000031b   Thumb Code     0  startup_LPC17xx.o(.text)
    PWM1_IRQHandler                          0x0000031b   Thumb Code     0  startup_LPC17xx.o(.text)
    QEI_IRQHandler                           0x0000031b   Thumb Code     0  startup_LPC17xx.o(.text)
    RIT_IRQHandler                           0x0000031b   Thumb Code     0  startup_LPC17xx.o(.text)
    RTC_IRQHandler                           0x0000031b   Thumb Code     0  startup_LPC17xx.o(.text)
    SPI_IRQHandler                           0x0000031b   Thumb Code     0  startup_LPC17xx.o(.text)
    SSP0_IRQHandler                          0x0000031b   Thumb Code     0  startup_LPC17xx.o(.text)
    SSP1_IRQHandler                          0x0000031b   Thumb Code     0  startup_LPC17xx.o(.text)
    TIMER2_IRQHandler                        0x0000031b   Thumb Code     0  startup_LPC17xx.o(.text)
    TIMER3_IRQHandler                        0x0000031b   Thumb Code     0  startup_LPC17xx.o(.text)
    UART0_IRQHandler                         0x0000031b   Thumb Code     0  startup_LPC17xx.o(.text)
    UART1_IRQHandler                         0x0000031b   Thumb Code     0  startup_LPC17xx.o(.text)
    UART2_IRQHandler                         0x0000031b   Thumb Code     0  startup_LPC17xx.o(.text)
    UART3_IRQHandler                         0x0000031b   Thumb Code     0  startup_LPC17xx.o(.text)
    USB_IRQHandler                           0x0000031b   Thumb Code     0  startup_LPC17xx.o(.text)
    WDT_IRQHandler                           0x0000031b   Thumb Code     0  startup_LPC17xx.o(.text)
    __aeabi_uldivmod                         0x00000325   Thumb Code     0  lludivv7m.o(.text)
    _ll_udiv                                 0x00000325   Thumb Code   238  lludivv7m.o(.text)
    sprintf                                  0x00000415   Thumb Code    38  sprintf.o(.text)
    __2printf                                0x00000441   Thumb Code    20  __2printf.o(.text)
    __2sprintf                               0x00000459   Thumb Code    38  __2sprintf.o(.text)
    _printf_str                              0x00000485   Thumb Code    82  _printf_str.o(.text)
    _printf_int_dec                          0x000004d9   Thumb Code   104  _printf_dec.o(.text)
    _printf_longlong_hex                     0x00000551   Thumb Code    86  _printf_hex_int_ll_ptr.o(.text)
    _printf_int_hex                          0x000005a7   Thumb Code    28  _printf_hex_int_ll_ptr.o(.text)
    _printf_ll_hex                           0x000005c3   Thumb Code    12  _printf_hex_int_ll_ptr.o(.text)
    _printf_hex_ptr                          0x000005cf   Thumb Code    18  _printf_hex_int_ll_ptr.o(.text)
    __printf                                 0x000005e5   Thumb Code   388  __printf_flags_ss_wp.o(.text)
    sscanf                                   0x0000076d   Thumb Code    52  sscanf.o(.text)
    srand                                    0x000007a9   Thumb Code    42  rand.o(.text)
    _rand_init                               0x000007d3   Thumb Code     4  rand.o(.text)
    __aeabi_atexit                           0x000007e5   Thumb Code    46  aeabi_atexit.o(.text)
    __aeabi_assert                           0x00000815   Thumb Code    86  assert.o(.text)
    __assert                                 0x00000815   Thumb Code     0  assert.o(.text)
    strlen                                   0x00000895   Thumb Code    62  strlen.o(.text)
    strncmp                                  0x000008d3   Thumb Code   150  strncmp.o(.text)
    strcmp                                   0x00000969   Thumb Code   128  strcmpv7m.o(.text)
    __cpp_initialize__aeabi_                 0x000009e9   Thumb Code    26  init_aeabi.o(.text)
    __rt_ctype_table                         0x00000a0d   Thumb Code    16  rt_ctype_table.o(.text)
    __aeabi_errno_addr                       0x00000a1d   Thumb Code     8  rt_errno_addr.o(.text)
    __errno                                  0x00000a1d   Thumb Code     0  rt_errno_addr.o(.text)
    __rt_errno_addr                          0x00000a1d   Thumb Code     0  rt_errno_addr.o(.text)
    malloc                                   0x00000a25   Thumb Code    94  h1_alloc.o(.text)
    free                                     0x00000a83   Thumb Code    78  h1_free.o(.text)
    __read_errno                             0x00000ad1   Thumb Code    10  _rserrno.o(.text)
    __set_errno                              0x00000adb   Thumb Code    12  _rserrno.o(.text)
    _printf_pre_padding                      0x00000ae7   Thumb Code    44  _printf_pad.o(.text)
    _printf_post_padding                     0x00000b13   Thumb Code    34  _printf_pad.o(.text)
    _printf_truncate_signed                  0x00000b35   Thumb Code    18  _printf_truncate.o(.text)
    _printf_truncate_unsigned                0x00000b47   Thumb Code    18  _printf_truncate.o(.text)
    _printf_int_common                       0x00000b59   Thumb Code   178  _printf_intcommon.o(.text)
    _printf_charcount                        0x00000c0b   Thumb Code    40  _printf_charcount.o(.text)
    _printf_char_common                      0x00000c3f   Thumb Code    32  _printf_char_common.o(.text)
    _sputc                                   0x00000c65   Thumb Code    10  _sputc.o(.text)
    _printf_cs_common                        0x00000c6f   Thumb Code    20  _printf_char.o(.text)
    _printf_char                             0x00000c83   Thumb Code    16  _printf_char.o(.text)
    _printf_string                           0x00000c93   Thumb Code     8  _printf_char.o(.text)
    _printf_char_file                        0x00000c9d   Thumb Code    32  _printf_char_file.o(.text)
    _printf_wctomb                           0x00000cc1   Thumb Code   182  _printf_wctomb.o(.text)
    _printf_longlong_dec                     0x00000d7d   Thumb Code   108  _printf_longlong_dec.o(.text)
    _printf_longlong_oct                     0x00000df9   Thumb Code    66  _printf_oct_int_ll.o(.text)
    _printf_int_oct                          0x00000e3b   Thumb Code    24  _printf_oct_int_ll.o(.text)
    _printf_ll_oct                           0x00000e53   Thumb Code    12  _printf_oct_int_ll.o(.text)
    _scanf_longlong                          0x00000e69   Thumb Code   342  _scanf_longlong.o(.text)
    _scanf_int                               0x00000fbf   Thumb Code   332  _scanf_int.o(.text)
    _scanf_string                            0x0000110b   Thumb Code   224  _scanf_str.o(.text)
    __vfscanf_char                           0x000011f9   Thumb Code    24  scanf_char.o(.text)
    _sgetc                                   0x00001219   Thumb Code    30  _sgetc.o(.text)
    _sbackspace                              0x00001237   Thumb Code    34  _sgetc.o(.text)
    _scanf_mbtowc                            0x00001259   Thumb Code   276  _scanf_mbtowc.o(.text)
    _scanf_wctomb                            0x0000136d   Thumb Code   232  _scanf_wctomb.o(.text)
    _scanf_wstring                           0x00001455   Thumb Code   208  _scanf_wstr.o(.text)
    _initio                                  0x00001525   Thumb Code   210  initio.o(.text)
    _terminateio                             0x000015f7   Thumb Code    56  initio.o(.text)
    abort                                    0x0000165d   Thumb Code    22  abort.o(.text)
    __cxa_finalize                           0x00001673   Thumb Code    66  cxa_finalize.o(.text)
    _ttywrch                                 0x000016b5   Thumb Code    14  sys_wrch.o(.text)
    _sys_exit                                0x000016c5   Thumb Code     8  sys_exit.o(.text)
    __rt_heap_descriptor                     0x000016d1   Thumb Code     8  rt_heap_descriptor.o(.text)
    __rt_locale                              0x000016d9   Thumb Code     8  rt_locale.o(.text)
    __use_no_heap                            0x000016e1   Thumb Code     2  hguard.o(.text)
    __heap$guard                             0x000016e3   Thumb Code     2  hguard.o(.text)
    _terminate_user_alloc                    0x000016e5   Thumb Code     2  init_alloc.o(.text)
    _init_user_alloc                         0x000016e7   Thumb Code     2  init_alloc.o(.text)
    __Heap_Full                              0x000016e9   Thumb Code    34  init_alloc.o(.text)
    __Heap_Broken                            0x0000170b   Thumb Code     6  init_alloc.o(.text)
    _init_alloc                              0x00001711   Thumb Code    94  init_alloc.o(.text)
    __Heap_Initialize                        0x0000176f   Thumb Code    10  h1_init.o(.text)
    __Heap_DescSize                          0x00001779   Thumb Code     4  h1_init.o(.text)
    _ll_udiv10                               0x0000177d   Thumb Code   138  lludiv10.o(.text)
    isspace                                  0x00001807   Thumb Code    18  isspace.o(.text)
    __lib_sel_fp_printf                      0x00001819   Thumb Code     2  _printf_fp_dec.o(.text)
    _printf_fp_dec_real                      0x000019cb   Thumb Code   620  _printf_fp_dec.o(.text)
    _printf_fp_hex_real                      0x00001c39   Thumb Code   756  _printf_fp_hex.o(.text)
    _printf_lcs_common                       0x00001f35   Thumb Code    20  _printf_wchar.o(.text)
    _printf_wchar                            0x00001f49   Thumb Code    16  _printf_wchar.o(.text)
    _printf_wstring                          0x00001f59   Thumb Code     8  _printf_wchar.o(.text)
    _chval                                   0x00001f61   Thumb Code    28  _chval.o(.text)
    __vfscanf                                0x00001f7d   Thumb Code   878  _scanf.o(.text)
    _scanf_really_real                       0x0000253d   Thumb Code   684  scanf_fp.o(.text)
    _scanf_wcharmap                          0x000027e9   Thumb Code    30  _scanf_wcharmap.o(.text)
    ferror                                   0x00002807   Thumb Code     8  ferror.o(.text)
    __flsbuf                                 0x0000280f   Thumb Code   470  flsbuf.o(.text)
    __flsbuf_byte                            0x0000280f   Thumb Code     0  flsbuf.o(.text)
    __flsbuf_wide                            0x0000280f   Thumb Code     0  flsbuf.o(.text)
    setvbuf                                  0x000029e5   Thumb Code    70  setvbuf.o(.text)
    freopen                                  0x00002a2d   Thumb Code   158  fopen.o(.text)
    fopen                                    0x00002acb   Thumb Code    74  fopen.o(.text)
    _fclose_internal                         0x00002b19   Thumb Code    76  fclose.o(.text)
    fclose                                   0x00002b19   Thumb Code     0  fclose.o(.text)
    _mbrtowc                                 0x00002b65   Thumb Code    60  _mbrtowc.o(.text)
    _wcrtomb                                 0x00002ba1   Thumb Code    64  _wcrtomb.o(.text)
    __sig_exit                               0x00002be1   Thumb Code    10  defsig_exit.o(.text)
    __rt_SIGABRT                             0x00002beb   Thumb Code    14  defsig_abrt_outer.o(.text)
    __rt_SIGRTRED                            0x00002bf9   Thumb Code    14  defsig_rtred_outer.o(.text)
    __aeabi_memclr4                          0x00002c07   Thumb Code     0  rt_memclr_w.o(.text)
    __aeabi_memclr8                          0x00002c07   Thumb Code     0  rt_memclr_w.o(.text)
    __rt_memclr_w                            0x00002c07   Thumb Code    78  rt_memclr_w.o(.text)
    _memset_w                                0x00002c0b   Thumb Code     0  rt_memclr_w.o(.text)
    std::terminate()                         0x00002c55   Thumb Code    26  arm_exceptions_terminate.o(.text)
    __cxa_get_globals                        0x00002c77   Thumb Code    62  arm_exceptions_globs.o(.text)
    __I$use$semihosting                      0x00002cc1   Thumb Code     0  use_no_semi.o(.text)
    __use_no_semihosting_swi                 0x00002cc1   Thumb Code     2  use_no_semi.o(.text)
    __semihosting_library_function           0x00002cc3   Thumb Code     0  indicate_semi.o(.text)
    __rt_eh_globals_addr                     0x00002cc5   Thumb Code     8  rt_eh_globals_addr.o(.text)
    __Heap_ProvideMemory                     0x00002ccd   Thumb Code    52  h1_extend.o(.text)
    _printf_fp_infnan                        0x00002d01   Thumb Code   112  _printf_fp_infnan.o(.text)
    _btod_etento                             0x00002d81   Thumb Code   224  bigflt0.o(.text)
    _fseek                                   0x00002e65   Thumb Code   242  fseek.o(.text)
    fseek                                    0x00002e65   Thumb Code     0  fseek.o(.text)
    _seterr                                  0x00002f5d   Thumb Code    20  stdio.o(.text)
    _writebuf                                0x00002f71   Thumb Code    84  stdio.o(.text)
    _fflush                                  0x00002fc5   Thumb Code    70  stdio.o(.text)
    _deferredlazyseek                        0x0000300b   Thumb Code    60  stdio.o(.text)
    __default_signal_display                 0x0000304d   Thumb Code    50  defsig_general.o(.text)
    __rt_SIGABRT_inner                       0x00003081   Thumb Code    14  defsig_abrt_inner.o(.text)
    __rt_SIGRTRED_inner                      0x000030b1   Thumb Code    14  defsig_rtred_inner.o(.text)
    __rt_SIGRTMEM                            0x000030e5   Thumb Code    14  defsig_rtmem_outer.o(.text)
    __assert_puts                            0x000030f5   Thumb Code    18  assert_stdio.o(.text)
    __rt_heap_escrow                         0x0000310d   Thumb Code    22  heapauxa.o(.text)
    __rt_heap_expand                         0x00003123   Thumb Code    52  heapauxa.o(.text)
    __ARM_exceptions_buffer_init             0x0000315d   Thumb Code    18  arm_exceptions_mem.o(.text)
    __ARM_exceptions_buffer_allocate         0x0000316f   Thumb Code    22  arm_exceptions_mem.o(.text)
    __ARM_exceptions_buffer_free             0x00003185   Thumb Code    20  arm_exceptions_mem.o(.text)
    _scanf_really_hex_real                   0x00003199   Thumb Code   786  scanf_hexfp.o(.text)
    _scanf_really_infnan                     0x000034b9   Thumb Code   292  scanf_infnan.o(.text)
    _do_fflush                               0x000035ed   Thumb Code    54  fflush.o(.text)
    fflush                                   0x00003623   Thumb Code    42  fflush.o(.text)
    fputs                                    0x00003651   Thumb Code    34  fputs.o(.text)
    _ftell_internal                          0x00003673   Thumb Code    66  ftell.o(.text)
    ftell                                    0x00003673   Thumb Code     0  ftell.o(.text)
    __rt_SIGRTMEM_inner                      0x000036b5   Thumb Code    22  defsig_rtmem_inner.o(.text)
    __aeabi_llsl                             0x00003705   Thumb Code     0  llshl.o(.text)
    _ll_shift_l                              0x00003705   Thumb Code    38  llshl.o(.text)
    _btod_d2e                                0x0000372b   Thumb Code    62  btod.o(CL$$btod_d2e)
    _d2e_denorm_low                          0x00003769   Thumb Code    70  btod.o(CL$$btod_d2e_denorm_low)
    _d2e_norm_op1                            0x000037af   Thumb Code    96  btod.o(CL$$btod_d2e_norm_op1)
    __btod_div_common                        0x0000380f   Thumb Code   696  btod.o(CL$$btod_div_common)
    _e2d                                     0x00003b49   Thumb Code   122  btod.o(CL$$btod_e2d)
    _e2e                                     0x00003bcd   Thumb Code   220  btod.o(CL$$btod_e2e)
    _btod_ediv                               0x00003ca9   Thumb Code    42  btod.o(CL$$btod_ediv)
    _btod_edivd                              0x00003cd3   Thumb Code    42  btod.o(CL$$btod_edivd)
    _btod_emul                               0x00003cfd   Thumb Code    42  btod.o(CL$$btod_emul)
    _btod_emuld                              0x00003d27   Thumb Code    42  btod.o(CL$$btod_emuld)
    __btod_mult_common                       0x00003d51   Thumb Code   580  btod.o(CL$$btod_mult_common)
    EINT3_IRQHandler                         0x00003f95   Thumb Code    88  basic_rf.o(i.EINT3_IRQHandler)
    SystemInit                               0x00003ffd   Thumb Code   110  system_LPC17xx.o(i.SystemInit)
    TIMER0_IRQHandler                        0x00004075   Thumb Code    28  nrk_timer.o(i.TIMER0_IRQHandler)
    TIMER1_IRQHandler                        0x00004091   Thumb Code    18  nrk_timer.o(i.TIMER1_IRQHandler)
    mrf_cs_set(unsigned char)                0x000040a9   Thumb Code    24  mrf24j40.o(i._Z10mrf_cs_seth)
    GPIO_SetDir(unsigned char, unsigned, unsigned char) 0x000040c5   Thumb Code    32  ulib.o(i._Z11GPIO_SetDirhjh)
    GPIO_Toggle(unsigned char, unsigned)     0x000040e5   Thumb Code    24  ulib.o(i._Z11GPIO_Togglehj)
    bmac_tx_pkt(char*, unsigned char)        0x000040fd   Thumb Code    60  bmac.o(i._Z11bmac_tx_pktPch)
    nrk_led_clr(int)                         0x00004141   Thumb Code    44  ulib.o(i._Z11nrk_led_clri)
    nrk_led_set(int)                         0x0000416d   Thumb Code    44  ulib.o(i._Z11nrk_led_seti)
    set_PinFunc(unsigned char, unsigned char, unsigned char) 0x00004199   Thumb Code    36  ulib.o(i._Z11set_PinFunchhh)
    all_LEDs_clr()                           0x000041c1   Thumb Code    30  main.o(i._Z12all_LEDs_clrv)
    all_LEDs_set()                           0x000041df   Thumb Code    30  main.o(i._Z12all_LEDs_setv)
    bmac_nw_task()                           0x000041fd   Thumb Code   102  bmac.o(i._Z12bmac_nw_taskv)
    bmac_started()                           0x00004269   Thumb Code     8  bmac.o(i._Z12bmac_startedv)
    mrf_set_addr(unsigned short)             0x00004275   Thumb Code    34  mrf24j40.o(i._Z12mrf_set_addrt)
    mrf_spi_init(unsigned char, unsigned char, int) 0x0000429d   Thumb Code   164  mrf24j40.o(i._Z12mrf_spi_inithhi)
    nrk_TCB_init(task_type*, unsigned*, unsigned*, unsigned short, void*, unsigned short) 0x00004351   Thumb Code   378  nrk.o(i._Z12nrk_TCB_initP9task_typePjS1_tPvt)
    nrk_gpio_clr(unsigned)                   0x000044d5   Thumb Code    66  ulib.o(i._Z12nrk_gpio_clrj)
    nrk_gpio_set(unsigned)                   0x00004517   Thumb Code    66  ulib.o(i._Z12nrk_gpio_setj)
    rf_data_mode()                           0x00004559   Thumb Code    10  basic_rf.o(i._Z12rf_data_modev)
    rf_rx_packet()                           0x00004565   Thumb Code    18  basic_rf.o(i._Z12rf_rx_packetv)
    rf_test_mode()                           0x0000457d   Thumb Code    10  basic_rf.o(i._Z12rf_test_modev)
    rf_tx_packet(RF_TX_INFO*)                0x00004589   Thumb Code   374  basic_rf.o(i._Z12rf_tx_packetP10RF_TX_INFO)
    setupSPIPins()                           0x00004711   Thumb Code    72  ulib.o(i._Z12setupSPIPinsv)
    GPIO_SetValue(unsigned char, unsigned)   0x00004759   Thumb Code    20  ulib.o(i._Z13GPIO_SetValuehj)
    mrf_gpio_init()                          0x0000476d   Thumb Code    82  mrf24j40.o(i._Z13mrf_gpio_initv)
    mrf_read_long(unsigned short)            0x000047cd   Thumb Code    84  mrf24j40.o(i._Z13mrf_read_longt)
    mrf_reset_set(unsigned char)             0x00004821   Thumb Code    24  mrf24j40.o(i._Z13mrf_reset_seth)
    mrf_set_panid(unsigned short)            0x0000483d   Thumb Code    44  mrf24j40.o(i._Z13mrf_set_panidt)
    mrf_spi_write(unsigned short)            0x0000486d   Thumb Code    22  mrf24j40.o(i._Z13mrf_spi_writet)
    nrk_error_add(unsigned char)             0x00004889   Thumb Code    14  nrk_error.o(i._Z13nrk_error_addh)
    nrk_idle_task()                          0x000048a1   Thumb Code    26  nrk_idle_task.o(i._Z13nrk_idle_taskv)
    rf_carrier_on()                          0x000048c1   Thumb Code    34  basic_rf.o(i._Z13rf_carrier_onv)
    _nrk_errno_set(unsigned char)            0x000048f9   Thumb Code     8  nrk_error.o(i._Z14_nrk_errno_seth)
    _nrk_scheduler()                         0x00004905   Thumb Code   618  nrk_scheduler.o(i._Z14_nrk_schedulerv)
    mrfIsrCallback()                         0x00004b99   Thumb Code    10  main.o(i._Z14mrfIsrCallbackv)
    mrf_read_short(unsigned char)            0x00004ba9   Thumb Code    70  mrf24j40.o(i._Z14mrf_read_shorth)
    mrf_write_long(unsigned short, unsigned char) 0x00004bef   Thumb Code    88  mrf24j40.o(i._Z14mrf_write_longth)
    nrk_event_wait(unsigned)                 0x00004c49   Thumb Code    50  nrk_events.o(i._Z14nrk_event_waitj)
    nrk_int_enable()                         0x00004c85   Thumb Code     4  nrk.o(i._Z14nrk_int_enablev)
    nrk_led_toggle(int)                      0x00004c89   Thumb Code    44  ulib.o(i._Z14nrk_led_togglei)
    rf_carrier_off()                         0x00004cb5   Thumb Code    34  basic_rf.o(i._Z14rf_carrier_offv)
    rf_set_rx_mode(unsigned char)            0x00004cd7   Thumb Code    24  basic_rf.o(i._Z14rf_set_rx_modeh)
    setup_uartPins()                         0x00004cef   Thumb Code    70  ulib.o(i._Z14setup_uartPinsv)
    GPIO_ClearValue(unsigned char, unsigned) 0x00004d35   Thumb Code    20  ulib.o(i._Z15GPIO_ClearValuehj)
    bmac_rx_pkt_get(unsigned char*, unsigned char*) 0x00004d7d   Thumb Code    30  bmac.o(i._Z15bmac_rx_pkt_getPhS_)
    mrf_write_short(unsigned char, unsigned char) 0x00004da5   Thumb Code    72  mrf24j40.o(i._Z15mrf_write_shorthh)
    nrk_gpio_toggle(unsigned)                0x00004ded   Thumb Code    66  ulib.o(i._Z15nrk_gpio_togglej)
    nrk_int_disable()                        0x00004e2f   Thumb Code     4  nrk.o(i._Z15nrk_int_disablev)
    nrk_setup_ports()                        0x00004e33   Thumb Code     4  ulib.o(i._Z15nrk_setup_portsv)
    nrk_stack_check()                        0x00004e37   Thumb Code     2  nrk_stack_check.o(i._Z15nrk_stack_checkv)
    rf_rx_check_cca()                        0x00004e39   Thumb Code    22  basic_rf.o(i._Z15rf_rx_check_ccav)
    PINSEL_ConfigPin(PINSEL_CFG_Type*)       0x00004e55   Thumb Code    38  ulib.o(i._Z16PINSEL_ConfigPinP15PINSEL_CFG_Type)
    _nrk_setup_timer()                       0x00004e7d   Thumb Code   136  nrk_timer.o(i._Z16_nrk_setup_timerv)
    bmac_task_config()                       0x00004f15   Thumb Code    60  bmac.o(i._Z16bmac_task_configv)
    mrf_gpioint_init()                       0x00004f5d   Thumb Code    42  mrf24j40.o(i._Z16mrf_gpioint_initv)
    nrk_event_signal(signed char)            0x00004f95   Thumb Code   126  nrk_events.o(i._Z16nrk_event_signala)
    nrk_spin_wait_us(unsigned)               0x0000501d   Thumb Code     4  nrk_timer.o(i._Z16nrk_spin_wait_usj)
    nrk_target_start()                       0x00005021   Thumb Code    10  nrk_cpu.o(i._Z16nrk_target_startv)
    nrk_task_set_stk(task_type*, unsigned*, unsigned short) 0x0000502b   Thumb Code    30  nrk_cpu.o(i._Z16nrk_task_set_stkP9task_typePjt)
    rf_polling_rx_on()                       0x00005049   Thumb Code    30  basic_rf.o(i._Z16rf_polling_rx_onv)
    set_ResistorMode(unsigned char, unsigned char, unsigned char) 0x00005071   Thumb Code    36  ulib.o(i._Z16set_ResistorModehhh)
    _nrk_os_timer_get()                      0x00005099   Thumb Code    10  nrk_timer.o(i._Z17_nrk_os_timer_getv)
    nrk_activate_task(task_type*)            0x000050a5   Thumb Code   112  nrk_task.o(i._Z17nrk_activate_taskP9task_type)
    nrk_add_to_readyQ(signed char)           0x00005119   Thumb Code   170  nrk_task.o(i._Z17nrk_add_to_readyQa)
    nrk_signal_create()                      0x000051d1   Thumb Code    44  nrk_events.o(i._Z17nrk_signal_createv)
    nrk_task_stk_init(void(*)(), unsigned*, unsigned*) 0x00005201   Thumb Code   128  nrk_cpu.o(i._Z17nrk_task_stk_initPFvvEPjS1_)
    nrk_wait_until_nw()                      0x00005281   Thumb Code    58  nrk_task.o(i._Z17nrk_wait_until_nwv)
    rf_set_cca_thresh(signed char)           0x000052c5   Thumb Code    38  basic_rf.o(i._Z17rf_set_cca_thresha)
    set_OpenDrainMode(unsigned char, unsigned char, unsigned char) 0x000052f1   Thumb Code    30  ulib.o(i._Z17set_OpenDrainModehhh)
    _nrk_time_to_ticks(nrk_time_t*)          0x00005315   Thumb Code    56  nrk_time.o(i._Z18_nrk_time_to_ticksP10nrk_time_t)
    nrk_create_taskset()                     0x00005355   Thumb Code   108  main.o(i._Z18nrk_create_tasksetv)
    rf_auto_ack_enable()                     0x000053d5   Thumb Code    26  basic_rf.o(i._Z18rf_auto_ack_enablev)
    rf_parse_rx_packet()                     0x000053f5   Thumb Code   166  basic_rf.o(i._Z18rf_parse_rx_packetv)
    _bmac_channel_check()                    0x000054a5   Thumb Code    32  bmac.o(i._Z19_bmac_channel_checkv)
    _nrk_os_timer_reset()                    0x000054c5   Thumb Code    10  nrk_timer.o(i._Z19_nrk_os_timer_resetv)
    _nrk_os_timer_start()                    0x000054d5   Thumb Code    14  nrk_timer.o(i._Z19_nrk_os_timer_startv)
    bmac_rx_pkt_release()                    0x000054e5   Thumb Code     8  bmac.o(i._Z19bmac_rx_pkt_releasev)
    bmac_set_cca_thresh(signed char)         0x000054f1   Thumb Code    10  bmac.o(i._Z19bmac_set_cca_thresha)
    nrk_rem_from_readyQ(signed char)         0x000054fd   Thumb Code    76  nrk_task.o(i._Z19nrk_rem_from_readyQa)
    nrk_signal_register(signed char)         0x00005551   Thumb Code    32  nrk_events.o(i._Z19nrk_signal_registera)
    rf_auto_ack_disable()                    0x00005579   Thumb Code    26  basic_rf.o(i._Z19rf_auto_ack_disablev)
    _nrk_get_next_wakeup()                   0x00005599   Thumb Code    10  nrk_timer.o(i._Z20_nrk_get_next_wakeupv)
    _nrk_set_next_wakeup(unsigned char)      0x000055a3   Thumb Code     8  nrk_timer.o(i._Z20_nrk_set_next_wakeuph)
    nrk_kernel_error_add(unsigned char, unsigned char) 0x000055ad   Thumb Code     8  nrk_error.o(i._Z20nrk_kernel_error_addhh)
    nrk_wait_until_ticks(unsigned short)     0x000055b9   Thumb Code    60  nrk_task.o(i._Z20nrk_wait_until_tickst)
    bmac_auto_ack_disable()                  0x000055fd   Thumb Code    10  bmac.o(i._Z21bmac_auto_ack_disablev)
    bmac_rx_pkt_set_buffer(char*, unsigned char) 0x00005609   Thumb Code    22  bmac.o(i._Z22bmac_rx_pkt_set_bufferPch)
    bmac_set_rx_check_rate(nrk_time_t)       0x00005629   Thumb Code    24  bmac.o(i._Z22bmac_set_rx_check_rate10nrk_time_t)
    bmac_wait_until_rx_pkt()                 0x00005649   Thumb Code    46  bmac.o(i._Z22bmac_wait_until_rx_pktv)
    nrk_stack_pointer_init()                 0x0000567d   Thumb Code   106  nrk_cpu.o(i._Z22nrk_stack_pointer_initv)
    rf_addr_decode_disable()                 0x000056f5   Thumb Code    22  basic_rf.o(i._Z22rf_addr_decode_disablev)
    _nrk_wait_for_scheduler()                0x0000570d   Thumb Code    14  nrk_task.o(i._Z23_nrk_wait_for_schedulerv)
    bmac_get_tx_done_signal()                0x00005721   Thumb Code    18  bmac.o(i._Z23bmac_get_tx_done_signalv)
    _nrk_high_speed_timer_get()              0x00005739   Thumb Code    16  nrk_timer.o(i._Z25_nrk_high_speed_timer_getv)
    bmac_addr_decode_dest_mac(unsigned short) 0x0000574d   Thumb Code     8  bmac.o(i._Z25bmac_addr_decode_dest_mact)
    nrk_high_speed_timer_wait(unsigned short, unsigned short) 0x00005759   Thumb Code    50  nrk_timer.o(i._Z25nrk_high_speed_timer_waittt)
    nrk_stack_pointer_restore()              0x0000578d   Thumb Code   100  nrk_cpu.o(i._Z25nrk_stack_pointer_restorev)
    nrk_get_high_ready_task_ID()             0x000057fd   Thumb Code     8  nrk_task.o(i._Z26nrk_get_high_ready_task_IDv)
    nrk_wait_until_next_period()             0x00005809   Thumb Code    58  nrk_task.o(i._Z26nrk_wait_until_next_periodv)
    _nrk_high_speed_timer_reset()            0x0000584d   Thumb Code    20  nrk_timer.o(i._Z27_nrk_high_speed_timer_resetv)
    nrk_task_set_entry_function(task_type*, void(*)()) 0x00005865   Thumb Code     4  nrk_cpu.o(i._Z27nrk_task_set_entry_functionP9task_typePFvvE)
    nrk_wait_until_next_n_periods(unsigned short) 0x00005869   Thumb Code    68  nrk_task.o(i._Z29nrk_wait_until_next_n_periodst)
    _b_pow(unsigned char)                    0x000058b5   Thumb Code    36  bmac.o(i._Z6_b_powh)
    initLED()                                0x000058d9   Thumb Code   156  ulib.o(i._Z7initLEDv)
    rf_init(RF_RX_INFO*, unsigned char, unsigned short, unsigned short) 0x00005979   Thumb Code    80  basic_rf.o(i._Z7rf_initP10RF_RX_INFOhtt)
    rx_task()                                0x000059d1   Thumb Code   146  main.o(i._Z7rx_taskv)
    tx_task()                                0x00005aa1   Thumb Code   138  main.o(i._Z7tx_taskv)
    _bmac_rx()                               0x00005b59   Thumb Code   104  bmac.o(i._Z8_bmac_rxv)
    _bmac_tx()                               0x00005bc5   Thumb Code   206  bmac.o(i._Z8_bmac_txv)
    mrf_init(unsigned char)                  0x00005ca1   Thumb Code    40  mrf24j40.o(i._Z8mrf_inith)
    mrf_rssi()                               0x00005ccd   Thumb Code    42  mrf24j40.o(i._Z8mrf_rssiv)
    nrk_init()                               0x00005cf9   Thumb Code   156  nrk.o(i._Z8nrk_initv)
    nrk_wait(nrk_time_t)                     0x00005da5   Thumb Code    74  nrk_task.o(i._Z8nrk_wait10nrk_time_t)
    rf_rx_on()                               0x00005df9   Thumb Code    22  basic_rf.o(i._Z8rf_rx_onv)
    PORT_INIT()                              0x00005e19   Thumb Code    22  ulib.o(i._Z9PORT_INITv)
    bmac_init(unsigned char)                 0x00005e31   Thumb Code   102  bmac.o(i._Z9bmac_inith)
    initDEBUG()                              0x00005ea5   Thumb Code   152  ulib.o(i._Z9initDEBUGv)
    mrf_reset(unsigned char)                 0x00005f41   Thumb Code   188  mrf24j40.o(i._Z9mrf_reseth)
    nrk_start()                              0x00005ffd   Thumb Code   124  nrk.o(i._Z9nrk_startv)
    rf_rx_off()                              0x00006085   Thumb Code    22  basic_rf.o(i._Z9rf_rx_offv)
    mbed::Base::clear(const char*, char*)    0x00006459   Thumb Code    42  Base.cpp.lpc1768.arm.o(i._ZN4mbed4Base5clearEPKcPc)
    mbed::Base::lookup(const char*, unsigned) 0x00006489   Thumb Code    50  Base.cpp.lpc1768.arm.o(i._ZN4mbed4Base6lookupEPKcj)
    mbed::Base::list_objs(const char*, char*) 0x000064c1   Thumb Code    56  Base.cpp.lpc1768.arm.o(i._ZN4mbed4Base9list_objsEPKcPc)
    mbed::Base::Base(const char*)            0x00006501   Thumb Code    28  Base.cpp.lpc1768.arm.o(i._ZN4mbed4BaseC1EPKc)
    mbed::Base::Base__sub_object(const char*) 0x00006501   Thumb Code     0  Base.cpp.lpc1768.arm.o(i._ZN4mbed4BaseC1EPKc)
    mbed::Base::~Base__deallocating()        0x00006525   Thumb Code    44  Base.cpp.lpc1768.arm.o(i._ZN4mbed4BaseD0Ev)
    mbed::Base::~Base()                      0x00006559   Thumb Code    46  Base.cpp.lpc1768.arm.o(i._ZN4mbed4BaseD1Ev)
    mbed::Base::~Base__sub_object()          0x00006559   Thumb Code     0  Base.cpp.lpc1768.arm.o(i._ZN4mbed4BaseD1Ev)
    mbed::DigitalIn::DigitalIn(PinName, const char*) 0x00006591   Thumb Code    28  DigitalIn.cpp.lpc1768.arm.o(i._ZN4mbed9DigitalInC1E7PinNamePKc)
    mbed::DigitalIn::DigitalIn__sub_object(PinName, const char*) 0x00006591   Thumb Code     0  DigitalIn.cpp.lpc1768.arm.o(i._ZN4mbed9DigitalInC1E7PinNamePKc)
    mbed::DigitalIn::~DigitalIn__deallocating() 0x000065b1   Thumb Code    14  DigitalIn.cpp.lpc1768.arm.o(i._ZN4mbed9DigitalInD0Ev)
    mbed::DigitalIn::~DigitalIn()            0x000065bf   Thumb Code     4  DigitalIn.cpp.lpc1768.arm.o(i._ZN4mbed9DigitalInD1Ev)
    mbed::DigitalIn::~DigitalIn__sub_object() 0x000065bf   Thumb Code     0  DigitalIn.cpp.lpc1768.arm.o(i._ZN4mbed9DigitalInD1Ev)
    mbed::DigitalIn::operator int()          0x000065c3   Thumb Code     6  DigitalIn.cpp.lpc1768.arm.o(i._ZN4mbed9DigitalIncviEv)
    std::type_info::operator ==(const std::type_info&) const 0x000065c9   Thumb Code    32  type_info_eq.o(i._ZNKSt9type_infoeqERKS_)
    operator delete[] (void*)                0x000065e9   Thumb Code     8  array_del.o(i._ZdaPv)
    operator delete (void*)                  0x000065f1   Thumb Code     8  delete.o(i._ZdlPv)
    __ARM_common_get_typeid                  0x000065f9   Thumb Code    32  rtti.o(i.__ARM_common_get_typeid)
    __ARM_fpclassify                         0x00006619   Thumb Code    40  fpclassify.o(i.__ARM_fpclassify)
    __derived_to_base_conversion             0x00006641   Thumb Code   106  rtti.o(i.__derived_to_base_conversion)
    __dynamic_cast                           0x000066b1   Thumb Code   170  rtti.o(i.__dynamic_cast)
    __mathlib_dbl_overflow                   0x00006765   Thumb Code    14  dunder.o(i.__mathlib_dbl_overflow)
    __mathlib_dbl_underflow                  0x00006775   Thumb Code    10  dunder.o(i.__mathlib_dbl_underflow)
    __mathlib_flt_overflow                   0x00006785   Thumb Code    10  funder.o(i.__mathlib_flt_overflow)
    __mathlib_flt_underflow                  0x0000678f   Thumb Code    10  funder.o(i.__mathlib_flt_underflow)
    __mathlib_narrow                         0x00006799   Thumb Code    16  narrow.o(i.__mathlib_narrow)
    __mathlib_tofloat                        0x000067a9   Thumb Code   184  narrow.o(i.__mathlib_tofloat)
    __support_ldexp                          0x0000688d   Thumb Code    22  ldexp.o(i.__support_ldexp)
    __user_setup_stackheap                   0x000068a5   Thumb Code     8  stackheap.o(i.__user_setup_stackheap)
    _is_digit                                0x000068b1   Thumb Code    14  __printf_wp.o(i._is_digit)
    _nrk_timer_tick                          0x000068bf   Thumb Code     4  nrk.o(i._nrk_timer_tick)
    _sys_close                               0x000068c5   Thumb Code    40  stdio.cpp.lpc1768.arm.o(i._sys_close)
    _sys_flen                                0x000068f1   Thumb Code    34  stdio.cpp.lpc1768.arm.o(i._sys_flen)
    _sys_istty                               0x00006919   Thumb Code    34  stdio.cpp.lpc1768.arm.o(i._sys_istty)
    _sys_open                                0x00006941   Thumb Code   348  stdio.cpp.lpc1768.arm.o(i._sys_open)
    _sys_seek                                0x00006ac5   Thumb Code    40  stdio.cpp.lpc1768.arm.o(i._sys_seek)
    _sys_write                               0x00006af1   Thumb Code    76  stdio.cpp.lpc1768.arm.o(i._sys_write)
    clock                                    0x00006b45   Thumb Code    22  rtc_time.c.lpc1768.arm.o(i.clock)
    exit                                     0x00006b65   Thumb Code    22  exit.c.lpc1768.arm.o(i.exit)
    fputc                                    0x00006b7b   Thumb Code    26  fputc.o(i.fputc)
    frexp                                    0x00006b95   Thumb Code    80  frexp.o(i.frexp)
    gpio_input                               0x00006bed   Thumb Code    48  gpio_api.c.lpc1768.arm.o(i.gpio_input)
    gpio_output                              0x00006c1d   Thumb Code    48  gpio_api.c.lpc1768.arm.o(i.gpio_output)
    gpio_read                                0x00006c4d   Thumb Code    24  gpio_api.c.lpc1768.arm.o(i.gpio_read)
    gpio_write                               0x00006c65   Thumb Code    24  gpio_api.c.lpc1768.arm.o(i.gpio_write)
    ldexp                                    0x00006c7d   Thumb Code   116  ldexp.o(i.ldexp)
    main                                     0x00006cf1   Thumb Code    80  main.o(i.main)
    mbed_die                                 0x00006d49   Thumb Code   114  utils_api.c.lpc1768.arm.o(i.mbed_die)
    pin_function                             0x00006dc1   Thumb Code    52  pinmap.c.lpc1768.arm.o(i.pin_function)
    pin_mode                                 0x00006df9   Thumb Code    52  pinmap.c.lpc1768.arm.o(i.pin_mode)
    pinmap_merge                             0x00006e31   Thumb Code    36  pinmap.c.lpc1768.arm.o(i.pinmap_merge)
    pinmap_peripheral                        0x00006e6d   Thumb Code    50  pinmap.c.lpc1768.arm.o(i.pinmap_peripheral)
    pinmap_pinout                            0x00006ec5   Thumb Code   134  pinmap.c.lpc1768.arm.o(i.pinmap_pinout)
    scalbnf                                  0x00006f69   Thumb Code    84  scalbnf.o(i.scalbnf)
    semihost_exit                            0x00006fbd   Thumb Code    12  semihost_api.c.lpc1768.arm.o(i.semihost_exit)
    serial_baud                              0x00006fc9   Thumb Code   218  serial_api.c.lpc1768.arm.o(i.serial_baud)
    serial_format                            0x000070c9   Thumb Code   132  serial_api.c.lpc1768.arm.o(i.serial_format)
    serial_init                              0x0000715d   Thumb Code   178  serial_api.c.lpc1768.arm.o(i.serial_init)
    serial_putc                              0x00007241   Thumb Code    12  serial_api.c.lpc1768.arm.o(i.serial_putc)
    timer_frequency                          0x0000724d   Thumb Code    16  timer_api.c.lpc1768.arm.o(i.timer_frequency)
    timer_init                               0x00007261   Thumb Code   100  timer_api.c.lpc1768.arm.o(i.timer_init)
    timer_read                               0x000072d1   Thumb Code     4  timer_api.c.lpc1768.arm.o(i.timer_read)
    timer_start                              0x000072d5   Thumb Code    12  timer_api.c.lpc1768.arm.o(i.timer_start)
    us_ticker_read                           0x000072e1   Thumb Code    44  us_ticker_api.c.lpc1768.arm.o(i.us_ticker_read)
    wait_ms                                  0x00007319   Thumb Code    28  wait_api.c.lpc1768.arm.o(i.wait_ms)
    wait_us                                  0x00007335   Thumb Code    22  wait_api.c.lpc1768.arm.o(i.wait_us)
    _get_lc_ctype                            0x0000734d   Thumb Code    44  lc_ctype_c.o(locale$$code)
    _get_lc_numeric                          0x00007379   Thumb Code    44  lc_numeric_c.o(locale$$code)
    __aeabi_d2f                              0x000073a5   Thumb Code     0  d2f.o(x$fpl$d2f)
    _d2f                                     0x000073a5   Thumb Code    98  d2f.o(x$fpl$d2f)
    __fpl_dcheck_NaN1                        0x00007409   Thumb Code    10  dcheck1.o(x$fpl$dcheck1)
    __fpl_dcmp_Inf                           0x00007419   Thumb Code    24  dcmpi.o(x$fpl$dcmpinf)
    __aeabi_cdcmpeq                          0x00007431   Thumb Code     0  deqf.o(x$fpl$deqf)
    _dcmpeq                                  0x00007431   Thumb Code   120  deqf.o(x$fpl$deqf)
    __aeabi_cdcmple                          0x000074a9   Thumb Code     0  dleqf.o(x$fpl$dleqf)
    _dcmple                                  0x000074a9   Thumb Code   120  dleqf.o(x$fpl$dleqf)
    __fpl_dcmple_InfNaN                      0x0000750b   Thumb Code     0  dleqf.o(x$fpl$dleqf)
    __fpl_dnaninf                            0x00007521   Thumb Code   156  dnaninf.o(x$fpl$dnaninf)
    __aeabi_cdrcmple                         0x000075bd   Thumb Code     0  drleqf.o(x$fpl$drleqf)
    _drcmple                                 0x000075bd   Thumb Code   108  drleqf.o(x$fpl$drleqf)
    __aeabi_fadd                             0x00007629   Thumb Code     0  faddsub_clz.o(x$fpl$fadd)
    _fadd                                    0x00007629   Thumb Code   196  faddsub_clz.o(x$fpl$fadd)
    __fpl_fcheck_NaN1                        0x000076ed   Thumb Code     6  fcheck1.o(x$fpl$fcheck1)
    __aeabi_fdiv                             0x000076f9   Thumb Code     0  fdiv.o(x$fpl$fdiv)
    _fdiv                                    0x000076f9   Thumb Code   384  fdiv.o(x$fpl$fdiv)
    __aeabi_f2iz                             0x0000787d   Thumb Code     0  ffix.o(x$fpl$ffix)
    _ffix                                    0x0000787d   Thumb Code    54  ffix.o(x$fpl$ffix)
    __aeabi_i2f                              0x000078b5   Thumb Code     0  fflt_clz.o(x$fpl$fflt)
    _fflt                                    0x000078b5   Thumb Code    48  fflt_clz.o(x$fpl$fflt)
    __aeabi_ui2f                             0x000078e5   Thumb Code     0  fflt_clz.o(x$fpl$ffltu)
    _ffltu                                   0x000078e5   Thumb Code    38  fflt_clz.o(x$fpl$ffltu)
    __aeabi_fmul                             0x0000790d   Thumb Code     0  fmul.o(x$fpl$fmul)
    _fmul                                    0x0000790d   Thumb Code   258  fmul.o(x$fpl$fmul)
    __fpl_fnaninf                            0x00007a0f   Thumb Code   140  fnaninf.o(x$fpl$fnaninf)
    __fpl_fretinf                            0x00007a9b   Thumb Code    10  fretinf.o(x$fpl$fretinf)
    __aeabi_fsub                             0x00007aa5   Thumb Code     0  faddsub_clz.o(x$fpl$fsub)
    _fsub                                    0x00007aa5   Thumb Code   234  faddsub_clz.o(x$fpl$fsub)
    __ieee_status                            0x00007b8f   Thumb Code     6  istatus.o(x$fpl$ieeestatus)
    _printf_fp_dec                           0x00007b95   Thumb Code     4  printf1.o(x$fpl$printf1)
    _printf_fp_hex                           0x00007b99   Thumb Code     4  printf2.o(x$fpl$printf2)
    __fpl_return_NaN                         0x00007b9d   Thumb Code   100  retnan.o(x$fpl$retnan)
    __ARM_scalbn                             0x00007c01   Thumb Code    92  scalbn.o(x$fpl$scalbn)
    __ARM_scalbnf                            0x00007c5d   Thumb Code    76  scalbnf.o(x$fpl$scalbnf)
    _scanf_real                              0x00007ca9   Thumb Code     4  scanf1.o(x$fpl$scanf1)
    _scanf_hex_real                          0x00007cad   Thumb Code     4  scanf2.o(x$fpl$scanf2)
    _scanf_infnan                            0x00007cb1   Thumb Code     4  scanf2.o(x$fpl$scanf2)
    __fpl_cmpreturn                          0x00007cb5   Thumb Code    48  trapv.o(x$fpl$trapveneer)
    mbed::Base::_base_funcs                  0x00007ce4   Data          24  Base.cpp.lpc1768.arm.o(.constdata)
    __I$use$fp                               0x00007ce4   Number         0  usenofp.o(x$fpl$usenofp)
    __stdin_name                             0x00007cfc   Data           7  stdio.cpp.lpc1768.arm.o(.constdata)
    __stdout_name                            0x00007d03   Data           8  stdio.cpp.lpc1768.arm.o(.constdata)
    __stderr_name                            0x00007d0b   Data           8  stdio.cpp.lpc1768.arm.o(.constdata)
    __aeabi_CLOCKS_PER_SEC                   0x00007ea4   Data           4  aeabi_clocks.o(.constdata)
    typeinfo for __cxxabiv1::__class_type_info 0x00007f6c   Data          12  lib_rtti_impl.o(.constdata__ZTIN10__cxxabiv117__class_type_infoE)
    typeinfo for __cxxabiv1::__si_class_type_info 0x00007f78   Data          12  lib_rtti_impl.o(.constdata__ZTIN10__cxxabiv120__si_class_type_infoE)
    typeinfo for __cxxabiv1::__vmi_class_type_info 0x00007f84   Data          12  lib_rtti_impl.o(.constdata__ZTIN10__cxxabiv121__vmi_class_type_infoE)
    typeinfo for mbed::FileHandle            0x00007f90   Data           8  stdio.cpp.lpc1768.arm.o(.constdata__ZTIN4mbed10FileHandleE)
    typeinfo for mbed::FileSystemLike        0x00007f98   Data          12  Base.cpp.lpc1768.arm.o(.constdata__ZTIN4mbed14FileSystemLikeE)
    typeinfo for mbed::Base                  0x00007fa4   Data           8  Base.cpp.lpc1768.arm.o(.constdata__ZTIN4mbed4BaseE)
    typeinfo for mbed::FileLike              0x00007fac   Data          32  stdio.cpp.lpc1768.arm.o(.constdata__ZTIN4mbed8FileLikeE)
    typeinfo for mbed::DigitalIn             0x00007fcc   Data          12  DigitalIn.cpp.lpc1768.arm.o(.constdata__ZTIN4mbed9DigitalInE)
    typeinfo for std::type_info              0x00007fd8   Data           8  type_info_dtor.o(.constdata__ZTISt9type_info)
    typeinfo name for __cxxabiv1::__class_type_info 0x00007fe0   Data          34  lib_rtti_impl.o(.constdata__ZTSN10__cxxabiv117__class_type_infoE)
    typeinfo name for __cxxabiv1::__si_class_type_info 0x00008002   Data          37  lib_rtti_impl.o(.constdata__ZTSN10__cxxabiv120__si_class_type_infoE)
    typeinfo name for __cxxabiv1::__vmi_class_type_info 0x00008027   Data          38  lib_rtti_impl.o(.constdata__ZTSN10__cxxabiv121__vmi_class_type_infoE)
    typeinfo name for mbed::FileHandle       0x0000804d   Data          20  stdio.cpp.lpc1768.arm.o(.constdata__ZTSN4mbed10FileHandleE)
    typeinfo name for mbed::FileSystemLike   0x00008061   Data          24  Base.cpp.lpc1768.arm.o(.constdata__ZTSN4mbed14FileSystemLikeE)
    typeinfo name for mbed::Base             0x00008079   Data          13  Base.cpp.lpc1768.arm.o(.constdata__ZTSN4mbed4BaseE)
    typeinfo name for mbed::FileLike         0x00008086   Data          17  stdio.cpp.lpc1768.arm.o(.constdata__ZTSN4mbed8FileLikeE)
    typeinfo name for mbed::DigitalIn        0x00008097   Data          18  DigitalIn.cpp.lpc1768.arm.o(.constdata__ZTSN4mbed9DigitalInE)
    typeinfo name for std::type_info         0x000080a9   Data          13  type_info_dtor.o(.constdata__ZTSSt9type_info)
    vtable for __cxxabiv1::__class_type_info 0x000080b8   Data          16  lib_rtti_impl.o(.constdata__ZTVN10__cxxabiv117__class_type_infoE)
    vtable for __cxxabiv1::__si_class_type_info 0x000080c8   Data          16  lib_rtti_impl.o(.constdata__ZTVN10__cxxabiv120__si_class_type_infoE)
    vtable for __cxxabiv1::__vmi_class_type_info 0x000080d8   Data          16  lib_rtti_impl.o(.constdata__ZTVN10__cxxabiv121__vmi_class_type_infoE)
    vtable for mbed::Base                    0x000080e8   Data          24  Base.cpp.lpc1768.arm.o(.constdata__ZTVN4mbed4BaseE)
    vtable for mbed::DigitalIn               0x00008100   Data          24  DigitalIn.cpp.lpc1768.arm.o(.constdata__ZTVN4mbed9DigitalInE)
    Region$$Table$$Base                      0x0000812c   Number         0  anon$$obj.o(Region$$Table)
    Region$$Table$$Limit                     0x0000814c   Number         0  anon$$obj.o(Region$$Table)
    __aeabi_HUGE_VAL                         0x0000814c   Data           0  fpconst.o(c$$dinf)
    __aeabi_HUGE_VALL                        0x0000814c   Data           0  fpconst.o(c$$dinf)
    __aeabi_INFINITY                         0x0000814c   Data           0  fpconst.o(c$$dinf)
    __dInf                                   0x0000814c   Data           0  fpconst.o(c$$dinf)
    __huge_val                               0x0000814c   Data           0  fpconst.o(c$$dinf)
    __dbl_max                                0x00008154   Data           0  fpconst.o(c$$dmax)
    __ctype                                  0x00008169   Data           0  lc_ctype_c.o(locale$$data)
    SHT$$INIT_ARRAY$$Base                    0x00008288   Number         0  main.o(.init_array)
    SHT$$INIT_ARRAY$$Limit                   0x0000828c   Number         0  init_aeabi.o(.init_array)
    _nrk_prev_timer_val                      0x100000c4   Data           1  nrk_timer.o(.data)
    _nrk_time_trigger                        0x100000c5   Data           1  nrk_timer.o(.data)
    nrk_kernel_stk_ptr                       0x100000c8   Data           4  nrk.o(.data)
    nrk_wakeup_signal                        0x100000cc   Data           1  nrk.o(.data)
    nrk_cur_task_prio                        0x100000d0   Data           1  nrk.o(.data)
    nrk_high_ready_prio                      0x100000d1   Data           1  nrk.o(.data)
    nrk_task_init_cnt                        0x100000d2   Data           1  nrk.o(.data)
    _free_node                               0x100000d4   Data           4  nrk.o(.data)
    _head_node                               0x100000d8   Data           4  nrk.o(.data)
    nrk_cur_task_TCB                         0x100000dc   Data           4  nrk.o(.data)
    nrk_high_ready_TCB                       0x100000e0   Data           4  nrk.o(.data)
    nrk_system_time                          0x100000e4   Data           8  nrk.o(.data)
    error_task                               0x100000ec   Data           1  nrk_error.o(.data)
    error_num                                0x100000ed   Data           1  nrk_error.o(.data)
    _nrk_signal_list                         0x100000f0   Data           4  nrk_events.o(.data)
    _nrk_cpu_state                           0x100000f4   Data           1  nrk_scheduler.o(.data)
    task_addr                                0x100000f8   Data           4  nrk_scheduler.o(.data)
    myAddr                                   0x100000fc   Data           2  mrf24j40.o(.data)
    myPanid                                  0x100000fe   Data           2  mrf24j40.o(.data)
    rx_ready                                 0x10000100   Data           1  basic_rf.o(.data)
    auto_ack_enable                          0x10000101   Data           1  basic_rf.o(.data)
    security_enable                          0x10000102   Data           1  basic_rf.o(.data)
    rx_data_ready                            0x10000103   Data           1  basic_rf.o(.data)
    tx_status_ready                          0x10000104   Data           1  basic_rf.o(.data)
    rssi_cca_thold                           0x10000105   Data           1  basic_rf.o(.data)
    bmac_rx_pkt_signal                       0x10000108   Data           1  bmac.o(.data)
    bmac_tx_pkt_done_signal                  0x10000109   Data           1  bmac.o(.data)
    bmac_enable_signal                       0x1000010a   Data           1  bmac.o(.data)
    timeup                                   0x10000128   Data           4  main.o(.data)
    molehit                                  0x1000012c   Data           4  main.o(.data)
    waittime                                 0x10000130   Data           4  main.o(.data)
    starttime                                0x10000134   Data           4  main.o(.data)
    hit                                      0x10000138   Data           4  main.o(.data)
    ctr_cnt                                  0x1000013c   Data           4  main.o(.data)
    SystemCoreClock                          0x10000140   Data           4  system_LPC17xx.o(.data)
    mbed::Base::_head                        0x10000144   Data           4  Base.cpp.lpc1768.arm.o(.data)
    mbed::Base::_classes                     0x10000148   Data           4  Base.cpp.lpc1768.arm.o(.data)
    mbed::Base::_base_class                  0x1000014c   Data          12  Base.cpp.lpc1768.arm.o(.data)
    __aeabi_stdin                            0x1000015c   Data           4  stdio_streams.o(.data)
    __aeabi_stdout                           0x10000160   Data           4  stdio_streams.o(.data)
    __aeabi_stderr                           0x10000164   Data           4  stdio_streams.o(.data)
    nrk_kernel_stk                           0x1000016c   Data         128  nrk.o(.bss)
    nrk_idle_task_stk                        0x100001ec   Data         128  nrk.o(.bss)
    nrk_task_TCB                             0x1000026c   Data         440  nrk.o(.bss)
    _nrk_readyQ                              0x10000424   Data         132  nrk.o(.bss)
    rfSettings                               0x100004a8   Data          12  basic_rf.o(.bss)
    bmac_rfRxInfo                            0x100005e0   Data          16  bmac.o(.bss)
    bmac_rfTxInfo                            0x100005f0   Data          12  bmac.o(.bss)
    RX_TASK                                  0x100005fc   Data          44  main.o(.bss)
    rx_task_stack                            0x10000628   Data         512  main.o(.bss)
    TX_TASK                                  0x10000828   Data          44  main.o(.bss)
    tx_task_stack                            0x10000854   Data         512  main.o(.bss)
    tx_buf                                   0x10000a54   Data         115  main.o(.bss)
    rx_buf                                   0x10000ac7   Data         115  main.o(.bss)
    pr_covered                               0x10000b3c   Data          20  main.o(.bss)
    __stdin                                  0x10000b90   Data          84  stdio_streams.o(.bss)
    __stdout                                 0x10000be4   Data          84  stdio_streams.o(.bss)
    __stderr                                 0x10000c38   Data          84  stdio_streams.o(.bss)
    _random_number_data                      0x10000c8c   Data         228  rand.o(.bss)
    Image$$RW_IRAM1$$ZI$$Limit               0x10000d94   Number         0  anon$$obj.o ABSOLUTE



==============================================================================

Memory Map of the image

  Image Entry point : 0x000000c5

  Load Region LR_IROM1 (Base: 0x00000000, Size: 0x000083f8, Max: 0x00080000, ABSOLUTE, COMPRESSED[0x000082a4])

    Execution Region ER_IROM1 (Exec base: 0x00000000, Load base: 0x00000000, Size: 0x0000828c, Max: 0x00080000, ABSOLUTE)

    Exec Addr    Load Addr    Size         Type   Attr      Idx    E Section Name        Object

    0x00000000   0x00000000   0x000000c4   Data   RO         2597    RESET               startup_LPC17xx.o
    0x000000c4   0x000000c4   0x00000008   Code   RO         3064  * !!!main             c_w.l(__main.o)
    0x000000cc   0x000000cc   0x00000034   Code   RO         3960    !!!scatter          c_w.l(__scatter.o)
    0x00000100   0x00000100   0x0000003a   Code   RO         3958    !!dczerorl          c_w.l(__dczerorl.o)
    0x0000013a   0x0000013a   0x00000002   PAD
    0x0000013c   0x0000013c   0x0000001c   Code   RO         3962    !!handler_zi        c_w.l(__scatter_zi.o)
    0x00000158   0x00000158   0x00000000   Code   RO         3017    .ARM.Collect$$_printf_percent$$00000000  c_w.l(_printf_percent.o)
    0x00000158   0x00000158   0x00000006   Code   RO         3382    .ARM.Collect$$_printf_percent$$00000001  c_w.l(_printf_n.o)
    0x0000015e   0x0000015e   0x00000006   Code   RO         3383    .ARM.Collect$$_printf_percent$$00000002  c_w.l(_printf_p.o)
    0x00000164   0x00000164   0x00000006   Code   RO         3387    .ARM.Collect$$_printf_percent$$00000003  c_w.l(_printf_f.o)
    0x0000016a   0x0000016a   0x00000006   Code   RO         3388    .ARM.Collect$$_printf_percent$$00000004  c_w.l(_printf_e.o)
    0x00000170   0x00000170   0x00000006   Code   RO         3389    .ARM.Collect$$_printf_percent$$00000005  c_w.l(_printf_g.o)
    0x00000176   0x00000176   0x00000006   Code   RO         3390    .ARM.Collect$$_printf_percent$$00000006  c_w.l(_printf_a.o)
    0x0000017c   0x0000017c   0x0000000a   Code   RO         3395    .ARM.Collect$$_printf_percent$$00000007  c_w.l(_printf_ll.o)
    0x00000186   0x00000186   0x00000006   Code   RO         3385    .ARM.Collect$$_printf_percent$$00000008  c_w.l(_printf_i.o)
    0x0000018c   0x0000018c   0x00000006   Code   RO         3016    .ARM.Collect$$_printf_percent$$00000009  c_w.l(_printf_d.o)
    0x00000192   0x00000192   0x00000006   Code   RO         3386    .ARM.Collect$$_printf_percent$$0000000A  c_w.l(_printf_u.o)
    0x00000198   0x00000198   0x00000006   Code   RO         3384    .ARM.Collect$$_printf_percent$$0000000B  c_w.l(_printf_o.o)
    0x0000019e   0x0000019e   0x00000006   Code   RO         3015    .ARM.Collect$$_printf_percent$$0000000C  c_w.l(_printf_x.o)
    0x000001a4   0x000001a4   0x00000006   Code   RO         3392    .ARM.Collect$$_printf_percent$$0000000D  c_w.l(_printf_lli.o)
    0x000001aa   0x000001aa   0x00000006   Code   RO         3393    .ARM.Collect$$_printf_percent$$0000000E  c_w.l(_printf_lld.o)
    0x000001b0   0x000001b0   0x00000006   Code   RO         3394    .ARM.Collect$$_printf_percent$$0000000F  c_w.l(_printf_llu.o)
    0x000001b6   0x000001b6   0x00000006   Code   RO         3399    .ARM.Collect$$_printf_percent$$00000010  c_w.l(_printf_llo.o)
    0x000001bc   0x000001bc   0x00000006   Code   RO         3400    .ARM.Collect$$_printf_percent$$00000011  c_w.l(_printf_llx.o)
    0x000001c2   0x000001c2   0x0000000a   Code   RO         3396    .ARM.Collect$$_printf_percent$$00000012  c_w.l(_printf_l.o)
    0x000001cc   0x000001cc   0x00000006   Code   RO         3014    .ARM.Collect$$_printf_percent$$00000013  c_w.l(_printf_c.o)
    0x000001d2   0x000001d2   0x00000006   Code   RO         3381    .ARM.Collect$$_printf_percent$$00000014  c_w.l(_printf_s.o)
    0x000001d8   0x000001d8   0x00000006   Code   RO         3397    .ARM.Collect$$_printf_percent$$00000015  c_w.l(_printf_lc.o)
    0x000001de   0x000001de   0x00000006   Code   RO         3398    .ARM.Collect$$_printf_percent$$00000016  c_w.l(_printf_ls.o)
    0x000001e4   0x000001e4   0x00000004   Code   RO         3391    .ARM.Collect$$_printf_percent$$00000017  c_w.l(_printf_percent_end.o)
    0x000001e8   0x000001e8   0x00000002   Code   RO         3828    .ARM.Collect$$libinit$$00000000  c_w.l(libinit.o)
    0x000001ea   0x000001ea   0x00000000   Code   RO         3446    .ARM.Collect$$libinit$$00000002  c_w.l(libinit2.o)
    0x000001ea   0x000001ea   0x00000000   Code   RO         3448    .ARM.Collect$$libinit$$00000004  c_w.l(libinit2.o)
    0x000001ea   0x000001ea   0x00000008   Code   RO         3449    .ARM.Collect$$libinit$$00000005  c_w.l(libinit2.o)
    0x000001f2   0x000001f2   0x00000000   Code   RO         3451    .ARM.Collect$$libinit$$0000000A  c_w.l(libinit2.o)
    0x000001f2   0x000001f2   0x00000000   Code   RO         3453    .ARM.Collect$$libinit$$0000000C  c_w.l(libinit2.o)
    0x000001f2   0x000001f2   0x00000004   Code   RO         3454    .ARM.Collect$$libinit$$0000000D  c_w.l(libinit2.o)
    0x000001f6   0x000001f6   0x00000000   Code   RO         3455    .ARM.Collect$$libinit$$0000000E  c_w.l(libinit2.o)
    0x000001f6   0x000001f6   0x00000006   Code   RO         3456    .ARM.Collect$$libinit$$0000000F  c_w.l(libinit2.o)
    0x000001fc   0x000001fc   0x00000000   Code   RO         3458    .ARM.Collect$$libinit$$00000011  c_w.l(libinit2.o)
    0x000001fc   0x000001fc   0x0000000c   Code   RO         3459    .ARM.Collect$$libinit$$00000012  c_w.l(libinit2.o)
    0x00000208   0x00000208   0x00000000   Code   RO         3460    .ARM.Collect$$libinit$$00000013  c_w.l(libinit2.o)
    0x00000208   0x00000208   0x00000000   Code   RO         3462    .ARM.Collect$$libinit$$00000015  c_w.l(libinit2.o)
    0x00000208   0x00000208   0x0000000a   Code   RO         3463    .ARM.Collect$$libinit$$00000016  c_w.l(libinit2.o)
    0x00000212   0x00000212   0x00000000   Code   RO         3464    .ARM.Collect$$libinit$$00000017  c_w.l(libinit2.o)
    0x00000212   0x00000212   0x00000000   Code   RO         3466    .ARM.Collect$$libinit$$00000019  c_w.l(libinit2.o)
    0x00000212   0x00000212   0x00000000   Code   RO         3468    .ARM.Collect$$libinit$$0000001B  c_w.l(libinit2.o)
    0x00000212   0x00000212   0x00000000   Code   RO         3470    .ARM.Collect$$libinit$$0000001D  c_w.l(libinit2.o)
    0x00000212   0x00000212   0x00000000   Code   RO         3472    .ARM.Collect$$libinit$$0000001F  c_w.l(libinit2.o)
    0x00000212   0x00000212   0x00000000   Code   RO         3474    .ARM.Collect$$libinit$$00000021  c_w.l(libinit2.o)
    0x00000212   0x00000212   0x00000000   Code   RO         3476    .ARM.Collect$$libinit$$00000023  c_w.l(libinit2.o)
    0x00000212   0x00000212   0x00000004   Code   RO         3477    .ARM.Collect$$libinit$$00000024  c_w.l(libinit2.o)
    0x00000216   0x00000216   0x00000000   Code   RO         3478    .ARM.Collect$$libinit$$00000025  c_w.l(libinit2.o)
    0x00000216   0x00000216   0x00000000   Code   RO         3482    .ARM.Collect$$libinit$$0000002C  c_w.l(libinit2.o)
    0x00000216   0x00000216   0x00000000   Code   RO         3484    .ARM.Collect$$libinit$$0000002E  c_w.l(libinit2.o)
    0x00000216   0x00000216   0x00000000   Code   RO         3486    .ARM.Collect$$libinit$$00000030  c_w.l(libinit2.o)
    0x00000216   0x00000216   0x00000004   Code   RO         3487    .ARM.Collect$$libinit$$00000031  c_w.l(libinit2.o)
    0x0000021a   0x0000021a   0x00000000   Code   RO         3488    .ARM.Collect$$libinit$$00000032  c_w.l(libinit2.o)
    0x0000021a   0x0000021a   0x00000002   Code   RO         3489    .ARM.Collect$$libinit$$00000033  c_w.l(libinit2.o)
    0x0000021c   0x0000021c   0x00000000   Code   RO         3687    .ARM.Collect$$libshutdown$$00000002  c_w.l(libshutdown2.o)
    0x0000021c   0x0000021c   0x00000000   Code   RO         3689    .ARM.Collect$$libshutdown$$00000004  c_w.l(libshutdown2.o)
    0x0000021c   0x0000021c   0x00000000   Code   RO         3268    .ARM.Collect$$rtentry$$00000000  c_w.l(__rtentry.o)
    0x0000021c   0x0000021c   0x00000000   Code   RO         3575    .ARM.Collect$$rtentry$$00000002  c_w.l(__rtentry2.o)
    0x0000021c   0x0000021c   0x00000006   Code   RO         3587    .ARM.Collect$$rtentry$$00000004  c_w.l(__rtentry4.o)
    0x00000222   0x00000222   0x00000000   Code   RO         3577    .ARM.Collect$$rtentry$$00000009  c_w.l(__rtentry2.o)
    0x00000222   0x00000222   0x00000004   Code   RO         3578    .ARM.Collect$$rtentry$$0000000A  c_w.l(__rtentry2.o)
    0x00000226   0x00000226   0x00000000   Code   RO         3580    .ARM.Collect$$rtentry$$0000000C  c_w.l(__rtentry2.o)
    0x00000226   0x00000226   0x00000008   Code   RO         3581    .ARM.Collect$$rtentry$$0000000D  c_w.l(__rtentry2.o)
    0x0000022e   0x0000022e   0x00000002   PAD
    0x00000230   0x00000230   0x00000034   Code   RO         3030    .emb_text           c_w.l(rand.o)
    0x00000264   0x00000264   0x00000000   Code   RO         3750    .emb_text           c_w.l(maybetermalloc1.o)
    0x00000264   0x00000264   0x00000078   Code   RO            1    .text               my_asm.o
    0x000002dc   0x000002dc   0x00000014   Code   RO         2955    .text               c_w.l(fprintf.o)
    0x000002f0   0x000002f0   0x00000008   Code   RO         3280    .text               c_w.l(rt_ddtor_pointer_addr.o)
    0x000002f8   0x000002f8   0x00000004   Code   RO         3490    .text               cpprt_w.l(arm_bad_typeid_noexceptions.o)
    0x000002fc   0x000002fc   0x00000004   Code   RO         2598    .ARM.__at_0x02FC    startup_LPC17xx.o
    0x00000300   0x00000300   0x00000024   Code   RO         2599    .text               startup_LPC17xx.o
    0x00000324   0x00000324   0x000000ee   Code   RO         2953    .text               c_w.l(lludivv7m.o)
    0x00000412   0x00000412   0x00000002   PAD
    0x00000414   0x00000414   0x0000002c   Code   RO         2957    .text               c_w.l(sprintf.o)
    0x00000440   0x00000440   0x00000018   Code   RO         2959    .text               c_w.l(__2printf.o)
    0x00000458   0x00000458   0x0000002c   Code   RO         2961    .text               c_w.l(__2sprintf.o)
    0x00000484   0x00000484   0x00000052   Code   RO         2969    .text               c_w.l(_printf_str.o)
    0x000004d6   0x000004d6   0x00000002   PAD
    0x000004d8   0x000004d8   0x00000078   Code   RO         2971    .text               c_w.l(_printf_dec.o)
    0x00000550   0x00000550   0x00000094   Code   RO         2991    .text               c_w.l(_printf_hex_int_ll_ptr.o)
    0x000005e4   0x000005e4   0x00000188   Code   RO         3011    .text               c_w.l(__printf_flags_ss_wp.o)
    0x0000076c   0x0000076c   0x0000003c   Code   RO         3018    .text               c_w.l(sscanf.o)
    0x000007a8   0x000007a8   0x0000003c   Code   RO         3031    .text               c_w.l(rand.o)
    0x000007e4   0x000007e4   0x0000002e   Code   RO         3038    .text               c_w.l(aeabi_atexit.o)
    0x00000812   0x00000812   0x00000002   PAD
    0x00000814   0x00000814   0x00000080   Code   RO         3041    .text               c_w.l(assert.o)
    0x00000894   0x00000894   0x0000003e   Code   RO         3045    .text               c_w.l(strlen.o)
    0x000008d2   0x000008d2   0x00000096   Code   RO         3047    .text               c_w.l(strncmp.o)
    0x00000968   0x00000968   0x00000080   Code   RO         3055    .text               c_w.l(strcmpv7m.o)
    0x000009e8   0x000009e8   0x00000024   Code   RO         3069    .text               c_w.l(init_aeabi.o)
    0x00000a0c   0x00000a0c   0x00000010   Code   RO         3269    .text               c_w.l(rt_ctype_table.o)
    0x00000a1c   0x00000a1c   0x00000008   Code   RO         3285    .text               c_w.l(rt_errno_addr.o)
    0x00000a24   0x00000a24   0x0000005e   Code   RO         3294    .text               c_w.l(h1_alloc.o)
    0x00000a82   0x00000a82   0x0000004e   Code   RO         3296    .text               c_w.l(h1_free.o)
    0x00000ad0   0x00000ad0   0x00000016   Code   RO         3352    .text               c_w.l(_rserrno.o)
    0x00000ae6   0x00000ae6   0x0000004e   Code   RO         3354    .text               c_w.l(_printf_pad.o)
    0x00000b34   0x00000b34   0x00000024   Code   RO         3356    .text               c_w.l(_printf_truncate.o)
    0x00000b58   0x00000b58   0x000000b2   Code   RO         3358    .text               c_w.l(_printf_intcommon.o)
    0x00000c0a   0x00000c0a   0x00000028   Code   RO         3360    .text               c_w.l(_printf_charcount.o)
    0x00000c32   0x00000c32   0x00000002   PAD
    0x00000c34   0x00000c34   0x00000030   Code   RO         3362    .text               c_w.l(_printf_char_common.o)
    0x00000c64   0x00000c64   0x0000000a   Code   RO         3364    .text               c_w.l(_sputc.o)
    0x00000c6e   0x00000c6e   0x0000002c   Code   RO         3366    .text               c_w.l(_printf_char.o)
    0x00000c9a   0x00000c9a   0x00000002   PAD
    0x00000c9c   0x00000c9c   0x00000024   Code   RO         3368    .text               c_w.l(_printf_char_file.o)
    0x00000cc0   0x00000cc0   0x000000bc   Code   RO         3370    .text               c_w.l(_printf_wctomb.o)
    0x00000d7c   0x00000d7c   0x0000007c   Code   RO         3373    .text               c_w.l(_printf_longlong_dec.o)
    0x00000df8   0x00000df8   0x00000070   Code   RO         3379    .text               c_w.l(_printf_oct_int_ll.o)
    0x00000e68   0x00000e68   0x00000156   Code   RO         3401    .text               c_w.l(_scanf_longlong.o)
    0x00000fbe   0x00000fbe   0x0000014c   Code   RO         3403    .text               c_w.l(_scanf_int.o)
    0x0000110a   0x0000110a   0x000000e0   Code   RO         3405    .text               c_w.l(_scanf_str.o)
    0x000011ea   0x000011ea   0x00000002   PAD
    0x000011ec   0x000011ec   0x0000002c   Code   RO         3407    .text               c_w.l(scanf_char.o)
    0x00001218   0x00001218   0x00000040   Code   RO         3409    .text               c_w.l(_sgetc.o)
    0x00001258   0x00001258   0x00000114   Code   RO         3413    .text               c_w.l(_scanf_mbtowc.o)
    0x0000136c   0x0000136c   0x000000e8   Code   RO         3415    .text               c_w.l(_scanf_wctomb.o)
    0x00001454   0x00001454   0x000000d0   Code   RO         3417    .text               c_w.l(_scanf_wstr.o)
    0x00001524   0x00001524   0x00000138   Code   RO         3423    .text               c_w.l(initio.o)
    0x0000165c   0x0000165c   0x00000016   Code   RO         3429    .text               c_w.l(abort.o)
    0x00001672   0x00001672   0x00000042   Code   RO         3431    .text               c_w.l(cxa_finalize.o)
    0x000016b4   0x000016b4   0x0000000e   Code   RO         3565    .text               c_w.l(sys_wrch.o)
    0x000016c2   0x000016c2   0x00000002   PAD
    0x000016c4   0x000016c4   0x0000000c   Code   RO         3567    .text               c_w.l(sys_exit.o)
    0x000016d0   0x000016d0   0x00000008   Code   RO         3593    .text               c_w.l(rt_heap_descriptor.o)
    0x000016d8   0x000016d8   0x00000008   Code   RO         3598    .text               c_w.l(rt_locale.o)
    0x000016e0   0x000016e0   0x00000004   Code   RO         3603    .text               c_w.l(hguard.o)
    0x000016e4   0x000016e4   0x0000008a   Code   RO         3605    .text               c_w.l(init_alloc.o)
    0x0000176e   0x0000176e   0x0000000e   Code   RO         3609    .text               c_w.l(h1_init.o)
    0x0000177c   0x0000177c   0x0000008a   Code   RO         3623    .text               c_w.l(lludiv10.o)
    0x00001806   0x00001806   0x00000012   Code   RO         3625    .text               c_w.l(isspace.o)
    0x00001818   0x00001818   0x0000041e   Code   RO         3627    .text               c_w.l(_printf_fp_dec.o)
    0x00001c36   0x00001c36   0x00000002   PAD
    0x00001c38   0x00001c38   0x000002fc   Code   RO         3629    .text               c_w.l(_printf_fp_hex.o)
    0x00001f34   0x00001f34   0x0000002c   Code   RO         3634    .text               c_w.l(_printf_wchar.o)
    0x00001f60   0x00001f60   0x0000001c   Code   RO         3636    .text               c_w.l(_chval.o)
    0x00001f7c   0x00001f7c   0x00000374   Code   RO         3638    .text               c_w.l(_scanf.o)
    0x000022f0   0x000022f0   0x000004f8   Code   RO         3640    .text               c_w.l(scanf_fp.o)
    0x000027e8   0x000027e8   0x0000001e   Code   RO         3642    .text               c_w.l(_scanf_wcharmap.o)
    0x00002806   0x00002806   0x00000008   Code   RO         3644    .text               c_w.l(ferror.o)
    0x0000280e   0x0000280e   0x000001d6   Code   RO         3646    .text               c_w.l(flsbuf.o)
    0x000029e4   0x000029e4   0x00000046   Code   RO         3648    .text               c_w.l(setvbuf.o)
    0x00002a2a   0x00002a2a   0x00000002   PAD
    0x00002a2c   0x00002a2c   0x000000ec   Code   RO         3651    .text               c_w.l(fopen.o)
    0x00002b18   0x00002b18   0x0000004c   Code   RO         3653    .text               c_w.l(fclose.o)
    0x00002b64   0x00002b64   0x0000003c   Code   RO         3661    .text               c_w.l(_mbrtowc.o)
    0x00002ba0   0x00002ba0   0x00000040   Code   RO         3663    .text               c_w.l(_wcrtomb.o)
    0x00002be0   0x00002be0   0x0000000a   Code   RO         3668    .text               c_w.l(defsig_exit.o)
    0x00002bea   0x00002bea   0x0000000e   Code   RO         3670    .text               c_w.l(defsig_abrt_outer.o)
    0x00002bf8   0x00002bf8   0x0000000e   Code   RO         3674    .text               c_w.l(defsig_rtred_outer.o)
    0x00002c06   0x00002c06   0x0000004e   Code   RO         3680    .text               c_w.l(rt_memclr_w.o)
    0x00002c54   0x00002c54   0x0000001a   Code   RO         3723    .text               cpprt_w.l(arm_exceptions_terminate.o)
    0x00002c6e   0x00002c6e   0x00000002   PAD
    0x00002c70   0x00002c70   0x00000050   Code   RO         3730    .text               cpprt_w.l(arm_exceptions_globs.o)
    0x00002cc0   0x00002cc0   0x00000002   Code   RO         3740    .text               c_w.l(use_no_semi.o)
    0x00002cc2   0x00002cc2   0x00000000   Code   RO         3742    .text               c_w.l(indicate_semi.o)
    0x00002cc2   0x00002cc2   0x00000002   PAD
    0x00002cc4   0x00002cc4   0x00000008   Code   RO         3743    .text               c_w.l(rt_eh_globals_addr.o)
    0x00002ccc   0x00002ccc   0x00000034   Code   RO         3752    .text               c_w.l(h1_extend.o)
    0x00002d00   0x00002d00   0x00000080   Code   RO         3756    .text               c_w.l(_printf_fp_infnan.o)
    0x00002d80   0x00002d80   0x000000e4   Code   RO         3760    .text               c_w.l(bigflt0.o)
    0x00002e64   0x00002e64   0x000000f8   Code   RO         3785    .text               c_w.l(fseek.o)
    0x00002f5c   0x00002f5c   0x000000f0   Code   RO         3787    .text               c_w.l(stdio.o)
    0x0000304c   0x0000304c   0x00000032   Code   RO         3798    .text               c_w.l(defsig_general.o)
    0x0000307e   0x0000307e   0x00000002   PAD
    0x00003080   0x00003080   0x00000030   Code   RO         3800    .text               c_w.l(defsig_abrt_inner.o)
    0x000030b0   0x000030b0   0x00000034   Code   RO         3806    .text               c_w.l(defsig_rtred_inner.o)
    0x000030e4   0x000030e4   0x0000000e   Code   RO         3808    .text               c_w.l(defsig_rtmem_outer.o)
    0x000030f2   0x000030f2   0x00000002   PAD
    0x000030f4   0x000030f4   0x00000018   Code   RO         3812    .text               c_w.l(assert_stdio.o)
    0x0000310c   0x0000310c   0x00000050   Code   RO         3814    .text               c_w.l(heapauxa.o)
    0x0000315c   0x0000315c   0x0000003c   Code   RO         3832    .text               cpprt_w.l(arm_exceptions_mem.o)
    0x00003198   0x00003198   0x00000320   Code   RO         3864    .text               c_w.l(scanf_hexfp.o)
    0x000034b8   0x000034b8   0x00000134   Code   RO         3866    .text               c_w.l(scanf_infnan.o)
    0x000035ec   0x000035ec   0x00000064   Code   RO         3868    .text               c_w.l(fflush.o)
    0x00003650   0x00003650   0x00000022   Code   RO         3870    .text               c_w.l(fputs.o)
    0x00003672   0x00003672   0x00000042   Code   RO         3872    .text               c_w.l(ftell.o)
    0x000036b4   0x000036b4   0x00000050   Code   RO         3882    .text               c_w.l(defsig_rtmem_inner.o)
    0x00003704   0x00003704   0x00000026   Code   RO         3902    .text               c_w.l(llshl.o)
    0x0000372a   0x0000372a   0x0000003e   Code   RO         3763    CL$$btod_d2e        c_w.l(btod.o)
    0x00003768   0x00003768   0x00000046   Code   RO         3765    CL$$btod_d2e_denorm_low  c_w.l(btod.o)
    0x000037ae   0x000037ae   0x00000060   Code   RO         3764    CL$$btod_d2e_norm_op1  c_w.l(btod.o)
    0x0000380e   0x0000380e   0x00000338   Code   RO         3773    CL$$btod_div_common  c_w.l(btod.o)
    0x00003b46   0x00003b46   0x00000002   PAD
    0x00003b48   0x00003b48   0x00000084   Code   RO         3771    CL$$btod_e2d        c_w.l(btod.o)
    0x00003bcc   0x00003bcc   0x000000dc   Code   RO         3770    CL$$btod_e2e        c_w.l(btod.o)
    0x00003ca8   0x00003ca8   0x0000002a   Code   RO         3767    CL$$btod_ediv       c_w.l(btod.o)
    0x00003cd2   0x00003cd2   0x0000002a   Code   RO         3769    CL$$btod_edivd      c_w.l(btod.o)
    0x00003cfc   0x00003cfc   0x0000002a   Code   RO         3766    CL$$btod_emul       c_w.l(btod.o)
    0x00003d26   0x00003d26   0x0000002a   Code   RO         3768    CL$$btod_emuld      c_w.l(btod.o)
    0x00003d50   0x00003d50   0x00000244   Code   RO         3772    CL$$btod_mult_common  c_w.l(btod.o)
    0x00003f94   0x00003f94   0x00000068   Code   RO         1926    i.EINT3_IRQHandler  basic_rf.o
    0x00003ffc   0x00003ffc   0x00000078   Code   RO         2602    i.SystemInit        system_LPC17xx.o
    0x00004074   0x00004074   0x0000001c   Code   RO          744    i.TIMER0_IRQHandler  nrk_timer.o
    0x00004090   0x00004090   0x00000018   Code   RO          745    i.TIMER1_IRQHandler  nrk_timer.o
    0x000040a8   0x000040a8   0x0000001c   Code   RO         1774    i._Z10mrf_cs_seth   mrf24j40.o
    0x000040c4   0x000040c4   0x00000020   Code   RO          289    i._Z11GPIO_SetDirhjh  ulib.o
    0x000040e4   0x000040e4   0x00000018   Code   RO          290    i._Z11GPIO_Togglehj  ulib.o
    0x000040fc   0x000040fc   0x00000044   Code   RO         2212    i._Z11bmac_tx_pktPch  bmac.o
    0x00004140   0x00004140   0x0000002c   Code   RO          292    i._Z11nrk_led_clri  ulib.o
    0x0000416c   0x0000416c   0x0000002c   Code   RO          293    i._Z11nrk_led_seti  ulib.o
    0x00004198   0x00004198   0x00000028   Code   RO          294    i._Z11set_PinFunchhh  ulib.o
    0x000041c0   0x000041c0   0x0000001e   Code   RO         2503    i._Z12all_LEDs_clrv  main.o
    0x000041de   0x000041de   0x0000001e   Code   RO         2504    i._Z12all_LEDs_setv  main.o
    0x000041fc   0x000041fc   0x0000006c   Code   RO         2214    i._Z12bmac_nw_taskv  bmac.o
    0x00004268   0x00004268   0x0000000c   Code   RO         2215    i._Z12bmac_startedv  bmac.o
    0x00004274   0x00004274   0x00000028   Code   RO         1775    i._Z12mrf_set_addrt  mrf24j40.o
    0x0000429c   0x0000429c   0x000000b4   Code   RO         1776    i._Z12mrf_spi_inithhi  mrf24j40.o
    0x00004350   0x00004350   0x00000184   Code   RO          951    i._Z12nrk_TCB_initP9task_typePjS1_tPvt  nrk.o
    0x000044d4   0x000044d4   0x00000042   Code   RO          297    i._Z12nrk_gpio_clrj  ulib.o
    0x00004516   0x00004516   0x00000042   Code   RO          299    i._Z12nrk_gpio_setj  ulib.o
    0x00004558   0x00004558   0x0000000a   Code   RO         1929    i._Z12rf_data_modev  basic_rf.o
    0x00004562   0x00004562   0x00000002   PAD
    0x00004564   0x00004564   0x00000018   Code   RO         1930    i._Z12rf_rx_packetv  basic_rf.o
    0x0000457c   0x0000457c   0x0000000a   Code   RO         1931    i._Z12rf_test_modev  basic_rf.o
    0x00004586   0x00004586   0x00000002   PAD
    0x00004588   0x00004588   0x00000188   Code   RO         1932    i._Z12rf_tx_packetP10RF_TX_INFO  basic_rf.o
    0x00004710   0x00004710   0x00000048   Code   RO          300    i._Z12setupSPIPinsv  ulib.o
    0x00004758   0x00004758   0x00000014   Code   RO          301    i._Z13GPIO_SetValuehj  ulib.o
    0x0000476c   0x0000476c   0x00000060   Code   RO         1778    i._Z13mrf_gpio_initv  mrf24j40.o
    0x000047cc   0x000047cc   0x00000054   Code   RO         1779    i._Z13mrf_read_longt  mrf24j40.o
    0x00004820   0x00004820   0x0000001c   Code   RO         1780    i._Z13mrf_reset_seth  mrf24j40.o
    0x0000483c   0x0000483c   0x00000030   Code   RO         1781    i._Z13mrf_set_panidt  mrf24j40.o
    0x0000486c   0x0000486c   0x0000001c   Code   RO         1782    i._Z13mrf_spi_writet  mrf24j40.o
    0x00004888   0x00004888   0x00000018   Code   RO         1197    i._Z13nrk_error_addh  nrk_error.o
    0x000048a0   0x000048a0   0x00000020   Code   RO         1394    i._Z13nrk_idle_taskv  nrk_idle_task.o
    0x000048c0   0x000048c0   0x00000022   Code   RO         1933    i._Z13rf_carrier_onv  basic_rf.o
    0x000048e2   0x000048e2   0x00000016   Code   RO          746    i._Z14NVIC_EnableIRQ4IRQn  nrk_timer.o
    0x000048f8   0x000048f8   0x0000000c   Code   RO         1199    i._Z14_nrk_errno_seth  nrk_error.o
    0x00004904   0x00004904   0x00000294   Code   RO         1413    i._Z14_nrk_schedulerv  nrk_scheduler.o
    0x00004b98   0x00004b98   0x00000010   Code   RO         2505    i._Z14mrfIsrCallbackv  main.o
    0x00004ba8   0x00004ba8   0x00000046   Code   RO         1784    i._Z14mrf_read_shorth  mrf24j40.o
    0x00004bee   0x00004bee   0x00000058   Code   RO         1785    i._Z14mrf_write_longth  mrf24j40.o
    0x00004c46   0x00004c46   0x00000002   PAD
    0x00004c48   0x00004c48   0x0000003c   Code   RO         1290    i._Z14nrk_event_waitj  nrk_events.o
    0x00004c84   0x00004c84   0x00000004   Code   RO          952    i._Z14nrk_int_enablev  nrk.o
    0x00004c88   0x00004c88   0x0000002c   Code   RO          305    i._Z14nrk_led_togglei  ulib.o
    0x00004cb4   0x00004cb4   0x00000022   Code   RO         1935    i._Z14rf_carrier_offv  basic_rf.o
    0x00004cd6   0x00004cd6   0x00000018   Code   RO         1938    i._Z14rf_set_rx_modeh  basic_rf.o
    0x00004cee   0x00004cee   0x00000046   Code   RO          307    i._Z14setup_uartPinsv  ulib.o
    0x00004d34   0x00004d34   0x00000014   Code   RO          308    i._Z15GPIO_ClearValuehj  ulib.o
    0x00004d48   0x00004d48   0x00000034   Code   RO          309    i._Z15GPIO_GetPointerh  ulib.o
    0x00004d7c   0x00004d7c   0x00000028   Code   RO         2216    i._Z15bmac_rx_pkt_getPhS_  bmac.o
    0x00004da4   0x00004da4   0x00000048   Code   RO         1786    i._Z15mrf_write_shorthh  mrf24j40.o
    0x00004dec   0x00004dec   0x00000042   Code   RO          310    i._Z15nrk_gpio_togglej  ulib.o
    0x00004e2e   0x00004e2e   0x00000004   Code   RO          953    i._Z15nrk_int_disablev  nrk.o
    0x00004e32   0x00004e32   0x00000004   Code   RO          311    i._Z15nrk_setup_portsv  ulib.o
    0x00004e36   0x00004e36   0x00000002   Code   RO         1439    i._Z15nrk_stack_checkv  nrk_stack_check.o
    0x00004e38   0x00004e38   0x0000001c   Code   RO         1939    i._Z15rf_rx_check_ccav  basic_rf.o
    0x00004e54   0x00004e54   0x00000026   Code   RO          312    i._Z16PINSEL_ConfigPinP15PINSEL_CFG_Type  ulib.o
    0x00004e7a   0x00004e7a   0x00000002   PAD
    0x00004e7c   0x00004e7c   0x00000098   Code   RO          747    i._Z16_nrk_setup_timerv  nrk_timer.o
    0x00004f14   0x00004f14   0x00000048   Code   RO         2218    i._Z16bmac_task_configv  bmac.o
    0x00004f5c   0x00004f5c   0x00000038   Code   RO         1787    i._Z16mrf_gpioint_initv  mrf24j40.o
    0x00004f94   0x00004f94   0x00000088   Code   RO         1293    i._Z16nrk_event_signala  nrk_events.o
    0x0000501c   0x0000501c   0x00000004   Code   RO          748    i._Z16nrk_spin_wait_usj  nrk_timer.o
    0x00005020   0x00005020   0x0000000a   Code   RO          572    i._Z16nrk_target_startv  nrk_cpu.o
    0x0000502a   0x0000502a   0x0000001e   Code   RO          573    i._Z16nrk_task_set_stkP9task_typePjt  nrk_cpu.o
    0x00005048   0x00005048   0x00000028   Code   RO         1942    i._Z16rf_polling_rx_onv  basic_rf.o
    0x00005070   0x00005070   0x00000028   Code   RO          314    i._Z16set_ResistorModehhh  ulib.o
    0x00005098   0x00005098   0x0000000a   Code   RO          749    i._Z17_nrk_os_timer_getv  nrk_timer.o
    0x000050a2   0x000050a2   0x00000002   PAD
    0x000050a4   0x000050a4   0x00000074   Code   RO         1484    i._Z17nrk_activate_taskP9task_type  nrk_task.o
    0x00005118   0x00005118   0x000000b8   Code   RO         1485    i._Z17nrk_add_to_readyQa  nrk_task.o
    0x000051d0   0x000051d0   0x00000030   Code   RO         1294    i._Z17nrk_signal_createv  nrk_events.o
    0x00005200   0x00005200   0x00000080   Code   RO          574    i._Z17nrk_task_stk_initPFvvEPjS1_  nrk_cpu.o
    0x00005280   0x00005280   0x00000044   Code   RO         1486    i._Z17nrk_wait_until_nwv  nrk_task.o
    0x000052c4   0x000052c4   0x0000002c   Code   RO         1946    i._Z17rf_set_cca_thresha  basic_rf.o
    0x000052f0   0x000052f0   0x00000024   Code   RO          316    i._Z17set_OpenDrainModehhh  ulib.o
    0x00005314   0x00005314   0x00000040   Code   RO         1605    i._Z18_nrk_time_to_ticksP10nrk_time_t  nrk_time.o
    0x00005354   0x00005354   0x00000080   Code   RO         2506    i._Z18nrk_create_tasksetv  main.o
    0x000053d4   0x000053d4   0x00000020   Code   RO         1948    i._Z18rf_auto_ack_enablev  basic_rf.o
    0x000053f4   0x000053f4   0x000000b0   Code   RO         1949    i._Z18rf_parse_rx_packetv  basic_rf.o
    0x000054a4   0x000054a4   0x00000020   Code   RO         2221    i._Z19_bmac_channel_checkv  bmac.o
    0x000054c4   0x000054c4   0x00000010   Code   RO          754    i._Z19_nrk_os_timer_resetv  nrk_timer.o
    0x000054d4   0x000054d4   0x0000000e   Code   RO          755    i._Z19_nrk_os_timer_startv  nrk_timer.o
    0x000054e2   0x000054e2   0x00000002   PAD
    0x000054e4   0x000054e4   0x0000000c   Code   RO         2222    i._Z19bmac_rx_pkt_releasev  bmac.o
    0x000054f0   0x000054f0   0x0000000a   Code   RO         2224    i._Z19bmac_set_cca_thresha  bmac.o
    0x000054fa   0x000054fa   0x00000002   PAD
    0x000054fc   0x000054fc   0x00000054   Code   RO         1488    i._Z19nrk_rem_from_readyQa  nrk_task.o
    0x00005550   0x00005550   0x00000028   Code   RO         1296    i._Z19nrk_signal_registera  nrk_events.o
    0x00005578   0x00005578   0x00000020   Code   RO         1951    i._Z19rf_auto_ack_disablev  basic_rf.o
    0x00005598   0x00005598   0x0000000a   Code   RO          758    i._Z20_nrk_get_next_wakeupv  nrk_timer.o
    0x000055a2   0x000055a2   0x00000008   Code   RO          759    i._Z20_nrk_set_next_wakeuph  nrk_timer.o
    0x000055aa   0x000055aa   0x00000002   PAD
    0x000055ac   0x000055ac   0x0000000c   Code   RO         1201    i._Z20nrk_kernel_error_addhh  nrk_error.o
    0x000055b8   0x000055b8   0x00000044   Code   RO         1490    i._Z20nrk_wait_until_tickst  nrk_task.o
    0x000055fc   0x000055fc   0x0000000a   Code   RO         2228    i._Z21bmac_auto_ack_disablev  bmac.o
    0x00005606   0x00005606   0x00000002   PAD
    0x00005608   0x00005608   0x00000020   Code   RO         2231    i._Z22bmac_rx_pkt_set_bufferPch  bmac.o
    0x00005628   0x00005628   0x00000020   Code   RO         2232    i._Z22bmac_set_rx_check_rate10nrk_time_t  bmac.o
    0x00005648   0x00005648   0x00000034   Code   RO         2233    i._Z22bmac_wait_until_rx_pktv  bmac.o
    0x0000567c   0x0000567c   0x00000078   Code   RO          575    i._Z22nrk_stack_pointer_initv  nrk_cpu.o
    0x000056f4   0x000056f4   0x00000016   Code   RO         1956    i._Z22rf_addr_decode_disablev  basic_rf.o
    0x0000570a   0x0000570a   0x00000002   PAD
    0x0000570c   0x0000570c   0x00000014   Code   RO         1588    i._Z23_nrk_wait_for_schedulerv  nrk_task.o
    0x00005720   0x00005720   0x00000018   Code   RO         2237    i._Z23bmac_get_tx_done_signalv  bmac.o
    0x00005738   0x00005738   0x00000014   Code   RO          761    i._Z25_nrk_high_speed_timer_getv  nrk_timer.o
    0x0000574c   0x0000574c   0x0000000c   Code   RO         2241    i._Z25bmac_addr_decode_dest_mact  bmac.o
    0x00005758   0x00005758   0x00000032   Code   RO          762    i._Z25nrk_high_speed_timer_waittt  nrk_timer.o
    0x0000578a   0x0000578a   0x00000002   PAD
    0x0000578c   0x0000578c   0x00000070   Code   RO          576    i._Z25nrk_stack_pointer_restorev  nrk_cpu.o
    0x000057fc   0x000057fc   0x0000000c   Code   RO         1491    i._Z26nrk_get_high_ready_task_IDv  nrk_task.o
    0x00005808   0x00005808   0x00000044   Code   RO         1492    i._Z26nrk_wait_until_next_periodv  nrk_task.o
    0x0000584c   0x0000584c   0x00000018   Code   RO          764    i._Z27_nrk_high_speed_timer_resetv  nrk_timer.o
    0x00005864   0x00005864   0x00000004   Code   RO          577    i._Z27nrk_task_set_entry_functionP9task_typePFvvE  nrk_cpu.o
    0x00005868   0x00005868   0x0000004c   Code   RO         1493    i._Z29nrk_wait_until_next_n_periodst  nrk_task.o
    0x000058b4   0x000058b4   0x00000024   Code   RO         2246    i._Z6_b_powh        bmac.o
    0x000058d8   0x000058d8   0x000000a0   Code   RO          326    i._Z7initLEDv       ulib.o
    0x00005978   0x00005978   0x00000058   Code   RO         1961    i._Z7rf_initP10RF_RX_INFOhtt  basic_rf.o
    0x000059d0   0x000059d0   0x000000d0   Code   RO         2507    i._Z7rx_taskv       main.o
    0x00005aa0   0x00005aa0   0x000000b8   Code   RO         2508    i._Z7tx_taskv       main.o
    0x00005b58   0x00005b58   0x0000006c   Code   RO         2247    i._Z8_bmac_rxv      bmac.o
    0x00005bc4   0x00005bc4   0x000000dc   Code   RO         2248    i._Z8_bmac_txv      bmac.o
    0x00005ca0   0x00005ca0   0x0000002c   Code   RO         1788    i._Z8mrf_inith      mrf24j40.o
    0x00005ccc   0x00005ccc   0x0000002a   Code   RO         1789    i._Z8mrf_rssiv      mrf24j40.o
    0x00005cf6   0x00005cf6   0x00000002   PAD
    0x00005cf8   0x00005cf8   0x000000ac   Code   RO          955    i._Z8nrk_initv      nrk.o
    0x00005da4   0x00005da4   0x00000054   Code   RO         1494    i._Z8nrk_wait10nrk_time_t  nrk_task.o
    0x00005df8   0x00005df8   0x00000020   Code   RO         1962    i._Z8rf_rx_onv      basic_rf.o
    0x00005e18   0x00005e18   0x00000016   Code   RO          327    i._Z9PORT_INITv     ulib.o
    0x00005e2e   0x00005e2e   0x00000002   PAD
    0x00005e30   0x00005e30   0x00000074   Code   RO         2249    i._Z9bmac_inith     bmac.o
    0x00005ea4   0x00005ea4   0x0000009c   Code   RO          329    i._Z9initDEBUGv     ulib.o
    0x00005f40   0x00005f40   0x000000bc   Code   RO         1791    i._Z9mrf_reseth     mrf24j40.o
    0x00005ffc   0x00005ffc   0x00000088   Code   RO          956    i._Z9nrk_startv     nrk.o
    0x00006084   0x00006084   0x00000020   Code   RO         1963    i._Z9rf_rx_offv     basic_rf.o
    0x000060a4   0x000060a4   0x00000046   Code   RO         3089    i._ZN27_INTERNAL_6_rtti_c_066a44b012tbc_downcastEPvPKSt9type_infoP28a_base_class_traversal_blockPN10__cxxabiv122__base_class_type_infoE  cpprt_w.l(rtti.o)
    0x000060ea   0x000060ea   0x00000016   Code   RO         3090    i._ZN27_INTERNAL_6_rtti_c_066a44b017tbc_post_downcastEPvPKSt9type_infoP28a_base_class_traversal_blockPN10__cxxabiv122__base_class_type_infoE  cpprt_w.l(rtti.o)
    0x00006100   0x00006100   0x000000a4   Code   RO         3091    i._ZN27_INTERNAL_6_rtti_c_066a44b021traverse_base_classesEPvPKSt9type_infoP28a_base_class_traversal_blockPN10__cxxabiv122__base_class_type_infoE  cpprt_w.l(rtti.o)
    0x000061a4   0x000061a4   0x000000c0   Code   RO         3092    i._ZN27_INTERNAL_6_rtti_c_066a44b023find_base_class_at_addrEPvS0_PKSt9type_infoS3_Pi  cpprt_w.l(rtti.o)
    0x00006264   0x00006264   0x0000000e   Code   RO         3093    i._ZN27_INTERNAL_6_rtti_c_066a44b024get_virtual_base_pointerEPvPN10__cxxabiv122__base_class_type_infoE  cpprt_w.l(rtti.o)
    0x00006272   0x00006272   0x00000002   PAD
    0x00006274   0x00006274   0x000001e4   Code   RO         3094    i._ZN27_INTERNAL_6_rtti_c_066a44b028derived_to_base_conversion_rEPvPS0_PKSt9type_infoS4_jPiiPS4_P19a_result_virtualityS5_  cpprt_w.l(rtti.o)
    0x00006458   0x00006458   0x00000030   Code   RO         2633    i._ZN4mbed4Base5clearEPKcPc  mbed.ar(Base.cpp.lpc1768.arm.o)
    0x00006488   0x00006488   0x00000038   Code   RO         2634    i._ZN4mbed4Base6lookupEPKcj  mbed.ar(Base.cpp.lpc1768.arm.o)
    0x000064c0   0x000064c0   0x00000040   Code   RO         2637    i._ZN4mbed4Base9list_objsEPKcPc  mbed.ar(Base.cpp.lpc1768.arm.o)
    0x00006500   0x00006500   0x00000024   Code   RO         2638    i._ZN4mbed4BaseC1EPKc  mbed.ar(Base.cpp.lpc1768.arm.o)
    0x00006524   0x00006524   0x00000034   Code   RO         2639    i._ZN4mbed4BaseD0Ev  mbed.ar(Base.cpp.lpc1768.arm.o)
    0x00006558   0x00006558   0x00000038   Code   RO         2640    i._ZN4mbed4BaseD1Ev  mbed.ar(Base.cpp.lpc1768.arm.o)
    0x00006590   0x00006590   0x00000020   Code   RO         2714    i._ZN4mbed9DigitalInC1E7PinNamePKc  mbed.ar(DigitalIn.cpp.lpc1768.arm.o)
    0x000065b0   0x000065b0   0x0000000e   Code   RO         2750    i._ZN4mbed9DigitalInD0Ev  mbed.ar(DigitalIn.cpp.lpc1768.arm.o)
    0x000065be   0x000065be   0x00000004   Code   RO         2738    i._ZN4mbed9DigitalInD1Ev  mbed.ar(DigitalIn.cpp.lpc1768.arm.o)
    0x000065c2   0x000065c2   0x00000006   Code   RO         2715    i._ZN4mbed9DigitalIncviEv  mbed.ar(DigitalIn.cpp.lpc1768.arm.o)
    0x000065c8   0x000065c8   0x00000020   Code   RO         3519    i._ZNKSt9type_infoeqERKS_  cpprt_w.l(type_info_eq.o)
    0x000065e8   0x000065e8   0x00000008   Code   RO         3072    i._ZdaPv            cpprt_w.l(array_del.o)
    0x000065f0   0x000065f0   0x00000008   Code   RO         3079    i._ZdlPv            cpprt_w.l(delete.o)
    0x000065f8   0x000065f8   0x00000020   Code   RO         3117    i.__ARM_common_get_typeid  cpprt_w.l(rtti.o)
    0x00006618   0x00006618   0x00000028   Code   RO         3854    i.__ARM_fpclassify  m_ws.l(fpclassify.o)
    0x00006640   0x00006640   0x00000070   Code   RO         3095    i.__derived_to_base_conversion  cpprt_w.l(rtti.o)
    0x000066b0   0x000066b0   0x000000b4   Code   RO         3096    i.__dynamic_cast    cpprt_w.l(rtti.o)
    0x00006764   0x00006764   0x0000000e   Code   RO         3936    i.__mathlib_dbl_overflow  m_ws.l(dunder.o)
    0x00006772   0x00006772   0x00000002   PAD
    0x00006774   0x00006774   0x00000010   Code   RO         3938    i.__mathlib_dbl_underflow  m_ws.l(dunder.o)
    0x00006784   0x00006784   0x0000000a   Code   RO         3555    i.__mathlib_flt_overflow  m_ws.l(funder.o)
    0x0000678e   0x0000678e   0x0000000a   Code   RO         3557    i.__mathlib_flt_underflow  m_ws.l(funder.o)
    0x00006798   0x00006798   0x00000010   Code   RO         3856    i.__mathlib_narrow  m_ws.l(narrow.o)
    0x000067a8   0x000067a8   0x000000bc   Code   RO         3857    i.__mathlib_tofloat  m_ws.l(narrow.o)
    0x00006864   0x00006864   0x00000028   Code   RO         2509    i.__sti___8_main_cpp_7b2698e3  main.o
    0x0000688c   0x0000688c   0x00000016   Code   RO         3919    i.__support_ldexp   m_ws.l(ldexp.o)
    0x000068a2   0x000068a2   0x00000002   PAD
    0x000068a4   0x000068a4   0x0000000c   Code   RO         2606    i.__user_setup_stackheap  stackheap.o
    0x000068b0   0x000068b0   0x0000000e   Code   RO         3004    i._is_digit         c_w.l(__printf_wp.o)
    0x000068be   0x000068be   0x00000004   Code   RO          957    i._nrk_timer_tick   nrk.o
    0x000068c2   0x000068c2   0x00000002   PAD
    0x000068c4   0x000068c4   0x0000002c   Code   RO         2778    i._sys_close        mbed.ar(stdio.cpp.lpc1768.arm.o)
    0x000068f0   0x000068f0   0x00000028   Code   RO         2781    i._sys_flen         mbed.ar(stdio.cpp.lpc1768.arm.o)
    0x00006918   0x00006918   0x00000028   Code   RO         2782    i._sys_istty        mbed.ar(stdio.cpp.lpc1768.arm.o)
    0x00006940   0x00006940   0x00000184   Code   RO         2783    i._sys_open         mbed.ar(stdio.cpp.lpc1768.arm.o)
    0x00006ac4   0x00006ac4   0x0000002c   Code   RO         2785    i._sys_seek         mbed.ar(stdio.cpp.lpc1768.arm.o)
    0x00006af0   0x00006af0   0x00000054   Code   RO         2786    i._sys_write        mbed.ar(stdio.cpp.lpc1768.arm.o)
    0x00006b44   0x00006b44   0x00000020   Code   RO         2615    i.clock             capi.ar(rtc_time.c.lpc1768.arm.o)
    0x00006b64   0x00006b64   0x00000016   Code   RO         2915    i.exit              capi.ar(exit.c.lpc1768.arm.o)
    0x00006b7a   0x00006b7a   0x0000001a   Code   RO         3420    i.fputc             c_w.l(fputc.o)
    0x00006b94   0x00006b94   0x00000058   Code   RO         3895    i.frexp             m_ws.l(frexp.o)
    0x00006bec   0x00006bec   0x00000030   Code   RO         2763    i.gpio_input        capi.ar(gpio_api.c.lpc1768.arm.o)
    0x00006c1c   0x00006c1c   0x00000030   Code   RO         2765    i.gpio_output       capi.ar(gpio_api.c.lpc1768.arm.o)
    0x00006c4c   0x00006c4c   0x00000018   Code   RO         2766    i.gpio_read         capi.ar(gpio_api.c.lpc1768.arm.o)
    0x00006c64   0x00006c64   0x00000018   Code   RO         2767    i.gpio_write        capi.ar(gpio_api.c.lpc1768.arm.o)
    0x00006c7c   0x00006c7c   0x00000074   Code   RO         3920    i.ldexp             m_ws.l(ldexp.o)
    0x00006cf0   0x00006cf0   0x00000058   Code   RO         2510    i.main              main.o
    0x00006d48   0x00006d48   0x00000078   Code   RO         2917    i.mbed_die          capi.ar(utils_api.c.lpc1768.arm.o)
    0x00006dc0   0x00006dc0   0x00000038   Code   RO         2905    i.pin_function      capi.ar(pinmap.c.lpc1768.arm.o)
    0x00006df8   0x00006df8   0x00000038   Code   RO         2906    i.pin_mode          capi.ar(pinmap.c.lpc1768.arm.o)
    0x00006e30   0x00006e30   0x0000003c   Code   RO         2907    i.pinmap_merge      capi.ar(pinmap.c.lpc1768.arm.o)
    0x00006e6c   0x00006e6c   0x00000058   Code   RO         2908    i.pinmap_peripheral  capi.ar(pinmap.c.lpc1768.arm.o)
    0x00006ec4   0x00006ec4   0x000000a4   Code   RO         2909    i.pinmap_pinout     capi.ar(pinmap.c.lpc1768.arm.o)
    0x00006f68   0x00006f68   0x00000054   Code   RO         3261    i.scalbnf           m_ws.l(scalbnf.o)
    0x00006fbc   0x00006fbc   0x0000000c   Code   RO         2927    i.semihost_exit     capi.ar(semihost_api.c.lpc1768.arm.o)
    0x00006fc8   0x00006fc8   0x00000100   Code   RO         2884    i.serial_baud       capi.ar(serial_api.c.lpc1768.arm.o)
    0x000070c8   0x000070c8   0x00000094   Code   RO         2886    i.serial_format     capi.ar(serial_api.c.lpc1768.arm.o)
    0x0000715c   0x0000715c   0x000000e4   Code   RO         2889    i.serial_init       capi.ar(serial_api.c.lpc1768.arm.o)
    0x00007240   0x00007240   0x0000000c   Code   RO         2891    i.serial_putc       capi.ar(serial_api.c.lpc1768.arm.o)
    0x0000724c   0x0000724c   0x00000014   Code   RO         2871    i.timer_frequency   capi.ar(timer_api.c.lpc1768.arm.o)
    0x00007260   0x00007260   0x00000070   Code   RO         2872    i.timer_init        capi.ar(timer_api.c.lpc1768.arm.o)
    0x000072d0   0x000072d0   0x00000004   Code   RO         2873    i.timer_read        capi.ar(timer_api.c.lpc1768.arm.o)
    0x000072d4   0x000072d4   0x0000000c   Code   RO         2874    i.timer_start       capi.ar(timer_api.c.lpc1768.arm.o)
    0x000072e0   0x000072e0   0x00000038   Code   RO         2773    i.us_ticker_read    capi.ar(us_ticker_api.c.lpc1768.arm.o)
    0x00007318   0x00007318   0x0000001c   Code   RO         2622    i.wait_ms           capi.ar(wait_api.c.lpc1768.arm.o)
    0x00007334   0x00007334   0x00000016   Code   RO         2623    i.wait_us           capi.ar(wait_api.c.lpc1768.arm.o)
    0x0000734a   0x0000734a   0x00000002   PAD
    0x0000734c   0x0000734c   0x0000002c   Code   RO         3666    locale$$code        c_w.l(lc_ctype_c.o)
    0x00007378   0x00007378   0x0000002c   Code   RO         3794    locale$$code        c_w.l(lc_numeric_c.o)
    0x000073a4   0x000073a4   0x00000062   Code   RO         3886    x$fpl$d2f           fz_ws.l(d2f.o)
    0x00007406   0x00007406   0x00000002   PAD
    0x00007408   0x00007408   0x00000010   Code   RO         3930    x$fpl$dcheck1       fz_ws.l(dcheck1.o)
    0x00007418   0x00007418   0x00000018   Code   RO         3912    x$fpl$dcmpinf       fz_ws.l(dcmpi.o)
    0x00007430   0x00007430   0x00000078   Code   RO         3888    x$fpl$deqf          fz_ws.l(deqf.o)
    0x000074a8   0x000074a8   0x00000078   Code   RO         3914    x$fpl$dleqf         fz_ws.l(dleqf.o)
    0x00007520   0x00007520   0x0000009c   Code   RO         3528    x$fpl$dnaninf       fz_ws.l(dnaninf.o)
    0x000075bc   0x000075bc   0x0000006c   Code   RO         3890    x$fpl$drleqf        fz_ws.l(drleqf.o)
    0x00007628   0x00007628   0x000000c4   Code   RO         3234    x$fpl$fadd          fz_ws.l(faddsub_clz.o)
    0x000076ec   0x000076ec   0x0000000c   Code   RO         3736    x$fpl$fcheck1       fz_ws.l(fcheck1.o)
    0x000076f8   0x000076f8   0x00000184   Code   RO         3241    x$fpl$fdiv          fz_ws.l(fdiv.o)
    0x0000787c   0x0000787c   0x00000036   Code   RO         3244    x$fpl$ffix          fz_ws.l(ffix.o)
    0x000078b2   0x000078b2   0x00000002   PAD
    0x000078b4   0x000078b4   0x00000030   Code   RO         3253    x$fpl$fflt          fz_ws.l(fflt_clz.o)
    0x000078e4   0x000078e4   0x00000026   Code   RO         3252    x$fpl$ffltu         fz_ws.l(fflt_clz.o)
    0x0000790a   0x0000790a   0x00000002   PAD
    0x0000790c   0x0000790c   0x00000102   Code   RO         3258    x$fpl$fmul          fz_ws.l(fmul.o)
    0x00007a0e   0x00007a0e   0x0000008c   Code   RO         3532    x$fpl$fnaninf       fz_ws.l(fnaninf.o)
    0x00007a9a   0x00007a9a   0x0000000a   Code   RO         3534    x$fpl$fretinf       fz_ws.l(fretinf.o)
    0x00007aa4   0x00007aa4   0x000000ea   Code   RO         3236    x$fpl$fsub          fz_ws.l(faddsub_clz.o)
    0x00007b8e   0x00007b8e   0x00000006   Code   RO         3536    x$fpl$ieeestatus    fz_ws.l(istatus.o)
    0x00007b94   0x00007b94   0x00000004   Code   RO         3538    x$fpl$printf1       fz_ws.l(printf1.o)
    0x00007b98   0x00007b98   0x00000004   Code   RO         3540    x$fpl$printf2       fz_ws.l(printf2.o)
    0x00007b9c   0x00007b9c   0x00000064   Code   RO         3846    x$fpl$retnan        fz_ws.l(retnan.o)
    0x00007c00   0x00007c00   0x0000005c   Code   RO         3916    x$fpl$scalbn        fz_ws.l(scalbn.o)
    0x00007c5c   0x00007c5c   0x0000004c   Code   RO         3546    x$fpl$scalbnf       fz_ws.l(scalbnf.o)
    0x00007ca8   0x00007ca8   0x00000004   Code   RO         3548    x$fpl$scanf1        fz_ws.l(scanf1.o)
    0x00007cac   0x00007cac   0x00000008   Code   RO         3848    x$fpl$scanf2        fz_ws.l(scanf2.o)
    0x00007cb4   0x00007cb4   0x00000030   Code   RO         3892    x$fpl$trapveneer    fz_ws.l(trapv.o)
    0x00007ce4   0x00007ce4   0x00000000   Code   RO         3550    x$fpl$usenofp       fz_ws.l(usenofp.o)
    0x00007ce4   0x00007ce4   0x00000018   Data   RO         2660    .constdata          mbed.ar(Base.cpp.lpc1768.arm.o)
    0x00007cfc   0x00007cfc   0x00000017   Data   RO         2837    .constdata          mbed.ar(stdio.cpp.lpc1768.arm.o)
    0x00007d13   0x00007d13   0x00000001   PAD
    0x00007d14   0x00007d14   0x00000154   Data   RO         2894    .constdata          capi.ar(serial_api.c.lpc1768.arm.o)
    0x00007e68   0x00007e68   0x00000028   Data   RO         2992    .constdata          c_w.l(_printf_hex_int_ll_ptr.o)
    0x00007e90   0x00007e90   0x00000011   Data   RO         3012    .constdata          c_w.l(__printf_flags_ss_wp.o)
    0x00007ea1   0x00007ea1   0x00000003   PAD
    0x00007ea4   0x00007ea4   0x00000004   Data   RO         3062    .constdata          c_w.l(aeabi_clocks.o)
    0x00007ea8   0x00007ea8   0x00000008   Data   RO         3371    .constdata          c_w.l(_printf_wctomb.o)
    0x00007eb0   0x00007eb0   0x00000026   Data   RO         3630    .constdata          c_w.l(_printf_fp_hex.o)
    0x00007ed6   0x00007ed6   0x00000002   PAD
    0x00007ed8   0x00007ed8   0x00000094   Data   RO         3761    .constdata          c_w.l(bigflt0.o)
    0x00007f6c   0x00007f6c   0x0000000c   Data   RO         3207    .constdata__ZTIN10__cxxabiv117__class_type_infoE  cpprt_w.l(lib_rtti_impl.o)
    0x00007f78   0x00007f78   0x0000000c   Data   RO         3208    .constdata__ZTIN10__cxxabiv120__si_class_type_infoE  cpprt_w.l(lib_rtti_impl.o)
    0x00007f84   0x00007f84   0x0000000c   Data   RO         3209    .constdata__ZTIN10__cxxabiv121__vmi_class_type_infoE  cpprt_w.l(lib_rtti_impl.o)
    0x00007f90   0x00007f90   0x00000008   Data   RO         2867    .constdata__ZTIN4mbed10FileHandleE  mbed.ar(stdio.cpp.lpc1768.arm.o)
    0x00007f98   0x00007f98   0x0000000c   Data   RO         2708    .constdata__ZTIN4mbed14FileSystemLikeE  mbed.ar(Base.cpp.lpc1768.arm.o)
    0x00007fa4   0x00007fa4   0x00000008   Data   RO         2685    .constdata__ZTIN4mbed4BaseE  mbed.ar(Base.cpp.lpc1768.arm.o)
    0x00007fac   0x00007fac   0x00000020   Data   RO         2866    .constdata__ZTIN4mbed8FileLikeE  mbed.ar(stdio.cpp.lpc1768.arm.o)
    0x00007fcc   0x00007fcc   0x0000000c   Data   RO         2753    .constdata__ZTIN4mbed9DigitalInE  mbed.ar(DigitalIn.cpp.lpc1768.arm.o)
    0x00007fd8   0x00007fd8   0x00000008   Data   RO         3517    .constdata__ZTISt9type_info  cpprt_w.l(type_info_dtor.o)
    0x00007fe0   0x00007fe0   0x00000022   Data   RO         3217    .constdata__ZTSN10__cxxabiv117__class_type_infoE  cpprt_w.l(lib_rtti_impl.o)
    0x00008002   0x00008002   0x00000025   Data   RO         3218    .constdata__ZTSN10__cxxabiv120__si_class_type_infoE  cpprt_w.l(lib_rtti_impl.o)
    0x00008027   0x00008027   0x00000026   Data   RO         3219    .constdata__ZTSN10__cxxabiv121__vmi_class_type_infoE  cpprt_w.l(lib_rtti_impl.o)
    0x0000804d   0x0000804d   0x00000014   Data   RO         2869    .constdata__ZTSN4mbed10FileHandleE  mbed.ar(stdio.cpp.lpc1768.arm.o)
    0x00008061   0x00008061   0x00000018   Data   RO         2709    .constdata__ZTSN4mbed14FileSystemLikeE  mbed.ar(Base.cpp.lpc1768.arm.o)
    0x00008079   0x00008079   0x0000000d   Data   RO         2689    .constdata__ZTSN4mbed4BaseE  mbed.ar(Base.cpp.lpc1768.arm.o)
    0x00008086   0x00008086   0x00000011   Data   RO         2868    .constdata__ZTSN4mbed8FileLikeE  mbed.ar(stdio.cpp.lpc1768.arm.o)
    0x00008097   0x00008097   0x00000012   Data   RO         2754    .constdata__ZTSN4mbed9DigitalInE  mbed.ar(DigitalIn.cpp.lpc1768.arm.o)
    0x000080a9   0x000080a9   0x0000000d   Data   RO         3518    .constdata__ZTSSt9type_info  cpprt_w.l(type_info_dtor.o)
    0x000080b6   0x000080b6   0x00000002   PAD
    0x000080b8   0x000080b8   0x00000010   Data   RO         3189    .constdata__ZTVN10__cxxabiv117__class_type_infoE  cpprt_w.l(lib_rtti_impl.o)
    0x000080c8   0x000080c8   0x00000010   Data   RO         3191    .constdata__ZTVN10__cxxabiv120__si_class_type_infoE  cpprt_w.l(lib_rtti_impl.o)
    0x000080d8   0x000080d8   0x00000010   Data   RO         3193    .constdata__ZTVN10__cxxabiv121__vmi_class_type_infoE  cpprt_w.l(lib_rtti_impl.o)
    0x000080e8   0x000080e8   0x00000018   Data   RO         2681    .constdata__ZTVN4mbed4BaseE  mbed.ar(Base.cpp.lpc1768.arm.o)
    0x00008100   0x00008100   0x00000018   Data   RO         2734    .constdata__ZTVN4mbed9DigitalInE  mbed.ar(DigitalIn.cpp.lpc1768.arm.o)
    0x00008118   0x00008118   0x0000000e   Data   RO         2662    .conststring        mbed.ar(Base.cpp.lpc1768.arm.o)
    0x00008126   0x00008126   0x00000005   Data   RO         2663    .conststring        mbed.ar(Base.cpp.lpc1768.arm.o)
    0x0000812b   0x0000812b   0x00000001   PAD
    0x0000812c   0x0000812c   0x00000020   Data   RO         3957    Region$$Table       anon$$obj.o
    0x0000814c   0x0000814c   0x00000008   Data   RO         3842    c$$dinf             fz_ws.l(fpconst.o)
    0x00008154   0x00008154   0x00000008   Data   RO         3845    c$$dmax             fz_ws.l(fpconst.o)
    0x0000815c   0x0000815c   0x00000110   Data   RO         3665    locale$$data        c_w.l(lc_ctype_c.o)
    0x0000826c   0x0000826c   0x0000001c   Data   RO         3793    locale$$data        c_w.l(lc_numeric_c.o)
    0x00008288   0x00008288   0x00000004   Data   RO         2525    .init_array         main.o
    0x0000828c   0x00008288   0x00000000   Data   RO         3067    .init_array         c_w.l(init_aeabi.o)


    Execution Region RW_IRAM1 (Exec base: 0x10000000, Load base: 0x0000828c, Size: 0x00000d94, Max: 0x00008000, ABSOLUTE, COMPRESSED[0x00000018])

    Exec Addr    Load Addr    Size         Type   Attr      Idx    E Section Name        Object

    0x10000000   COMPRESSED   0x000000c4   Data   RW         2612    .ARM.__AT_0x10000000  cmsis_nvic.o
    0x100000c4   COMPRESSED   0x00000002   Data   RW          788    .data               nrk_timer.o
    0x100000c6   COMPRESSED   0x00000002   PAD
    0x100000c8   COMPRESSED   0x00000004   Data   RW          968    .data               nrk.o
    0x100000cc   COMPRESSED   0x00000001   Data   RW          969    .data               nrk.o
    0x100000cd   COMPRESSED   0x00000003   PAD
    0x100000d0   COMPRESSED   0x00000014   Data   RW          970    .data               nrk.o
    0x100000e4   COMPRESSED   0x00000008   Data   RW          973    .data               nrk.o
    0x100000ec   COMPRESSED   0x00000002   Data   RW         1215    .data               nrk_error.o
    0x100000ee   COMPRESSED   0x00000002   PAD
    0x100000f0   COMPRESSED   0x00000004   Data   RW         1313    .data               nrk_events.o
    0x100000f4   COMPRESSED   0x00000008   Data   RW         1415    .data               nrk_scheduler.o
    0x100000fc   COMPRESSED   0x00000004   Data   RW         1814    .data               mrf24j40.o
    0x10000100   COMPRESSED   0x00000006   Data   RW         2005    .data               basic_rf.o
    0x10000106   COMPRESSED   0x00000002   PAD
    0x10000108   COMPRESSED   0x00000018   Data   RW         2290    .data               bmac.o
    0x10000120   COMPRESSED   0x00000020   Data   RW         2523    .data               main.o
    0x10000140   COMPRESSED   0x00000004   Data   RW         2603    .data               system_LPC17xx.o
    0x10000144   COMPRESSED   0x00000008   Data   RW         2664    .data               mbed.ar(Base.cpp.lpc1768.arm.o)
    0x1000014c   COMPRESSED   0x0000000c   Data   RW         2665    .data               mbed.ar(Base.cpp.lpc1768.arm.o)
    0x10000158   COMPRESSED   0x00000004   Data   RW         2774    .data               capi.ar(us_ticker_api.c.lpc1768.arm.o)
    0x1000015c   COMPRESSED   0x00000004   Data   RW         3027    .data               c_w.l(stdio_streams.o)
    0x10000160   COMPRESSED   0x00000004   Data   RW         3028    .data               c_w.l(stdio_streams.o)
    0x10000164   COMPRESSED   0x00000004   Data   RW         3029    .data               c_w.l(stdio_streams.o)
    0x10000168   COMPRESSED   0x00000004   Data   RW         3815    .data               c_w.l(heapauxa.o)
    0x1000016c        -       0x00000080   Zero   RW          966    .bss                nrk.o
    0x100001ec        -       0x000002bc   Zero   RW          967    .bss                nrk.o
    0x100004a8        -       0x0000000c   Zero   RW         2004    .bss                basic_rf.o
    0x100004b4        -       0x00000148   Zero   RW         2289    .bss                bmac.o
    0x100005fc        -       0x00000554   Zero   RW         2519    .bss                main.o
    0x10000b50        -       0x00000040   Zero   RW         2836    .bss                mbed.ar(stdio.cpp.lpc1768.arm.o)
    0x10000b90        -       0x00000054   Zero   RW         3024    .bss                c_w.l(stdio_streams.o)
    0x10000be4        -       0x00000054   Zero   RW         3025    .bss                c_w.l(stdio_streams.o)
    0x10000c38        -       0x00000054   Zero   RW         3026    .bss                c_w.l(stdio_streams.o)
    0x10000c8c        -       0x000000e4   Zero   RW         3032    .bss                c_w.l(rand.o)
    0x10000d70        -       0x00000004   Zero   RW         3281    .bss                c_w.l(rt_ddtor_pointer_addr.o)
    0x10000d74        -       0x00000004   Zero   RW         3286    .bss                c_w.l(rt_errno_addr.o)
    0x10000d78        -       0x00000004   Zero   RW         3594    .bss                c_w.l(rt_heap_descriptor.o)
    0x10000d7c        -       0x00000014   Zero   RW         3599    .bss                c_w.l(rt_locale.o)
    0x10000d90        -       0x00000004   Zero   RW         3744    .bss                c_w.l(rt_eh_globals_addr.o)


    Execution Region RW_IRAM2 (Exec base: 0x2007c000, Load base: 0x000082a4, Size: 0x00000000, Max: 0x00004000, ABSOLUTE)

    **** No section assigned to this execution region ****


    Execution Region RW_IRAM3 (Exec base: 0x20080000, Load base: 0x000082a4, Size: 0x00000000, Max: 0x00004000, ABSOLUTE)

    **** No section assigned to this execution region ****


    Execution Region RW_IRAM4 (Exec base: 0x40038000, Load base: 0x000082a4, Size: 0x00000000, Max: 0x00000800, ABSOLUTE)

    **** No section assigned to this execution region ****


==============================================================================

Image component sizes


      Code (inc. data)   RO Data    RW Data    ZI Data      Debug   Object Name

      1158        112          0          6         12      21002   basic_rf.o
       996        110          0         24        328      16238   bmac.o
         0          0          0        196          0          0   cmsis_nvic.o
         0          0          0          0          0      27865   hal_wait.o
       724        158          4         32       1364       7141   main.o
      1092         72          0          4          0      11637   mrf24j40.o
       120         14          0          0          0        412   my_asm.o
       708         38          0         33        828       6877   nrk.o
       404         26          0          0          0      31660   nrk_cpu.o
         0          0          0          0          0       4382   nrk_eeprom.o
        48         18          0          2          0       3275   nrk_error.o
       284         32          0          4          0       3565   nrk_events.o
        32          6          0          0          0        640   nrk_idle_task.o
       660         42          0          8          0       1798   nrk_scheduler.o
         2          0          0          0          0        578   nrk_stack_check.o
       780         82          0          0          0       9032   nrk_task.o
        64          8          0          0          0       2138   nrk_time.o
       382         36          0          2          0      14869   nrk_timer.o
        12          4          0          0          0         60   stackheap.o
        40         12        196          0          0        220   startup_LPC17xx.o
       120         10          0          4          0         60   system_LPC17xx.o
      1116         34          0          0          0      16476   ulib.o

    ----------------------------------------------------------------------
      8770        814        232        324       2532     179925   Object Totals
         0          0         32          0          0          0   (incl. Generated)
        28          0          0          9          0          0   (incl. Padding)

    ----------------------------------------------------------------------

      Code (inc. data)   RO Data    RW Data    ZI Data      Debug   Library Member Name

        24          4          0          0          0         84   __2printf.o
        44          6          0          0          0         84   __2sprintf.o
        58          0          0          0          0          0   __dczerorl.o
         8          0          0          0          0         68   __main.o
       392          4         17          0          0         92   __printf_flags_ss_wp.o
        14          0          0          0          0         68   __printf_wp.o
         0          0          0          0          0          0   __rtentry.o
        12          0          0          0          0          0   __rtentry2.o
         6          0          0          0          0          0   __rtentry4.o
        52          8          0          0          0          0   __scatter.o
        28          0          0          0          0          0   __scatter_zi.o
        28          0          0          0          0         68   _chval.o
        60          0          0          0          0         92   _mbrtowc.o
         6          0          0          0          0          0   _printf_a.o
         6          0          0          0          0          0   _printf_c.o
        44          0          0          0          0        108   _printf_char.o
        48          6          0          0          0         96   _printf_char_common.o
        36          4          0          0          0         80   _printf_char_file.o
        40          0          0          0          0         68   _printf_charcount.o
         6          0          0          0          0          0   _printf_d.o
       120         16          0          0          0         92   _printf_dec.o
         6          0          0          0          0          0   _printf_e.o
         6          0          0          0          0          0   _printf_f.o
      1054          0          0          0          0        216   _printf_fp_dec.o
       764          8         38          0          0        100   _printf_fp_hex.o
       128         16          0          0          0         84   _printf_fp_infnan.o
         6          0          0          0          0          0   _printf_g.o
       148          4         40          0          0        160   _printf_hex_int_ll_ptr.o
         6          0          0          0          0          0   _printf_i.o
       178          0          0          0          0         88   _printf_intcommon.o
        10          0          0          0          0          0   _printf_l.o
         6          0          0          0          0          0   _printf_lc.o
        10          0          0          0          0          0   _printf_ll.o
         6          0          0          0          0          0   _printf_lld.o
         6          0          0          0          0          0   _printf_lli.o
         6          0          0          0          0          0   _printf_llo.o
         6          0          0          0          0          0   _printf_llu.o
         6          0          0          0          0          0   _printf_llx.o
       124         16          0          0          0         92   _printf_longlong_dec.o
         6          0          0          0          0          0   _printf_ls.o
         6          0          0          0          0          0   _printf_n.o
         6          0          0          0          0          0   _printf_o.o
       112         10          0          0          0        124   _printf_oct_int_ll.o
         6          0          0          0          0          0   _printf_p.o
        78          0          0          0          0        108   _printf_pad.o
         0          0          0          0          0          0   _printf_percent.o
         4          0          0          0          0          0   _printf_percent_end.o
         6          0          0          0          0          0   _printf_s.o
        82          0          0          0          0         80   _printf_str.o
        36          0          0          0          0         84   _printf_truncate.o
         6          0          0          0          0          0   _printf_u.o
        44          0          0          0          0        108   _printf_wchar.o
       188          6          8          0          0         92   _printf_wctomb.o
         6          0          0          0          0          0   _printf_x.o
        22          0          0          0          0        100   _rserrno.o
       884          6          0          0          0        100   _scanf.o
       332          0          0          0          0         96   _scanf_int.o
       342          0          0          0          0        100   _scanf_longlong.o
       276          0          0          0          0        100   _scanf_mbtowc.o
       224          0          0          0          0         96   _scanf_str.o
        30          0          0          0          0         76   _scanf_wcharmap.o
       232          0          0          0          0        100   _scanf_wctomb.o
       208          0          0          0          0         96   _scanf_wstr.o
        64          0          0          0          0         84   _sgetc.o
        10          0          0          0          0         68   _sputc.o
        64          0          0          0          0         92   _wcrtomb.o
        22          0          0          0          0         80   abort.o
        46          0          0          0          0         84   aeabi_atexit.o
         0          0          4          0          0          0   aeabi_clocks.o
       128         42          0          0          0         76   assert.o
        24          6          0          0          0         80   assert_stdio.o
       228          4        148          0          0         96   bigflt0.o
      2152        136          0          0          0        960   btod.o
        66          0          0          0          0         84   cxa_finalize.o
        48         34          0          0          0         76   defsig_abrt_inner.o
        14          0          0          0          0         80   defsig_abrt_outer.o
        10          0          0          0          0         68   defsig_exit.o
        50          0          0          0          0         88   defsig_general.o
        80         58          0          0          0         76   defsig_rtmem_inner.o
        14          0          0          0          0         80   defsig_rtmem_outer.o
        52         38          0          0          0         76   defsig_rtred_inner.o
        14          0          0          0          0         80   defsig_rtred_outer.o
        76          0          0          0          0         88   fclose.o
         8          0          0          0          0         68   ferror.o
       100          4          0          0          0        120   fflush.o
       470          0          0          0          0         88   flsbuf.o
       236          4          0          0          0        128   fopen.o
        20          0          0          0          0         84   fprintf.o
        26          0          0          0          0         68   fputc.o
        34          0          0          0          0         80   fputs.o
       248          6          0          0          0         84   fseek.o
        66          0          0          0          0         76   ftell.o
        94          0          0          0          0         80   h1_alloc.o
        52          0          0          0          0         68   h1_extend.o
        78          0          0          0          0         80   h1_free.o
        14          0          0          0          0         84   h1_init.o
        80          6          0          4          0         96   heapauxa.o
         4          0          0          0          0        136   hguard.o
         0          0          0          0          0          0   indicate_semi.o
        36         10          0          0          0         80   init_aeabi.o
       138          0          0          0          0        168   init_alloc.o
       312         46          0          0          0        112   initio.o
        18          0          0          0          0         76   isspace.o
        44         10        272          0          0         76   lc_ctype_c.o
        44         10         28          0          0         76   lc_numeric_c.o
         2          0          0          0          0          0   libinit.o
        50          0          0          0          0          0   libinit2.o
         0          0          0          0          0          0   libshutdown2.o
        38          0          0          0          0         68   llshl.o
       138          0          0          0          0         80   lludiv10.o
       238          0          0          0          0        100   lludivv7m.o
         0          0          0          0          0          0   maybetermalloc1.o
       112         18          0          0        228        160   rand.o
        16          4          0          0          0         76   rt_ctype_table.o
         8          4          0          0          4         68   rt_ddtor_pointer_addr.o
         8          4          0          0          4         68   rt_eh_globals_addr.o
         8          4          0          0          4         68   rt_errno_addr.o
         8          4          0          0          4         68   rt_heap_descriptor.o
         8          4          0          0         20         68   rt_locale.o
        78          0          0          0          0         80   rt_memclr_w.o
        44          8          0          0          0         84   scanf_char.o
      1272         16          0          0          0        168   scanf_fp.o
       800         14          0          0          0        100   scanf_hexfp.o
       308         16          0          0          0        100   scanf_infnan.o
        70          0          0          0          0         80   setvbuf.o
        44          6          0          0          0         84   sprintf.o
        60          8          0          0          0         84   sscanf.o
       240          6          0          0          0        156   stdio.o
         0          0          0         12        252          0   stdio_streams.o
       128          0          0          0          0         68   strcmpv7m.o
        62          0          0          0          0         76   strlen.o
       150          0          0          0          0         80   strncmp.o
        12          4          0          0          0         68   sys_exit.o
        14          0          0          0          0         76   sys_wrch.o
